
BBS.EXE:     file format msdos
BBS.EXE
architecture: i8086, flags 0x00000002:
EXEC_P
start address 0x00000020

Sections:
Idx Name          Size      VMA       LMA       File off  Algn
  0 .text         00010b10  00000020  00000000  00000020  2**4
                  CONTENTS, ALLOC, LOAD, CODE
SYMBOL TABLE:
no symbols



Disassembly of section .text:

00000020 <.text>:
      20:	16                   	push   ss
      21:	07                   	pop    es
      22:	31 c0                	xor    ax,ax
      24:	bf 80 19             	mov    di,0x1980
      27:	b9 d3 00             	mov    cx,0xd3
      2a:	fc                   	cld    
      2b:	f3 ab                	rep stos WORD PTR es:[di],ax
      2d:	1e                   	push   ds
      2e:	16                   	push   ss
      2f:	1f                   	pop    ds
      30:	e8 4a 01             	call   0x17d
      33:	e8 48 01             	call   0x17e
      36:	1f                   	pop    ds
      37:	36 8c 1e 08 1a       	mov    WORD PTR ss:0x1a08,ds
      3c:	8e 06 2c 00          	mov    es,WORD PTR ds:0x2c
      40:	31 ff                	xor    di,di
      42:	fc                   	cld    
      43:	31 c0                	xor    ax,ax
      45:	b9 ff ff             	mov    cx,0xffff
      48:	f2 ae                	repnz scas al,BYTE PTR es:[di]
      4a:	83 f9 fe             	cmp    cx,0xfffe
      4d:	75 f6                	jne    0x45
      4f:	47                   	inc    di
      50:	47                   	inc    di
      51:	f2 ae                	repnz scas al,BYTE PTR es:[di]
      53:	06                   	push   es
      54:	1f                   	pop    ds
      55:	16                   	push   ss
      56:	07                   	pop    es
      57:	47                   	inc    di
      58:	83 e7 fe             	and    di,0xfffe
      5b:	29 fc                	sub    sp,di
      5d:	89 f9                	mov    cx,di
      5f:	89 e7                	mov    di,sp
      61:	31 f6                	xor    si,si
      63:	f3 a4                	rep movs BYTE PTR es:[di],BYTE PTR ds:[si]
      65:	89 e7                	mov    di,sp
      67:	50                   	push   ax
      68:	57                   	push   di
      69:	b9 ff ff             	mov    cx,0xffff
      6c:	f2 ae                	repnz scas al,BYTE PTR es:[di]
      6e:	83 f9 fe             	cmp    cx,0xfffe
      71:	75 f5                	jne    0x68
      73:	59                   	pop    cx
      74:	89 e5                	mov    bp,sp
      76:	50                   	push   ax
      77:	8d 45 02             	lea    ax,[di+0x2]
      7a:	50                   	push   ax
      7b:	89 e2                	mov    dx,sp
      7d:	31 db                	xor    bx,bx
      7f:	be 81 00             	mov    si,0x81
      82:	bf 08 1a             	mov    di,0x1a08
      85:	36 8e 1d             	mov    ds,WORD PTR ss:[di]
      88:	b9 01 00             	mov    cx,0x1
      8b:	89 fb                	mov    bx,di
      8d:	ac                   	lods   al,BYTE PTR ds:[si]
      8e:	3c 20                	cmp    al,0x20
      90:	74 f9                	je     0x8b
      92:	3c 22                	cmp    al,0x22
      94:	74 4a                	je     0xe0
      96:	3c 0d                	cmp    al,0xd
      98:	74 17                	je     0xb1
      9a:	3c 5c                	cmp    al,0x5c
      9c:	74 64                	je     0x102
      9e:	aa                   	stos   BYTE PTR es:[di],al
      9f:	ac                   	lods   al,BYTE PTR ds:[si]
      a0:	3c 20                	cmp    al,0x20
      a2:	74 79                	je     0x11d
      a4:	3c 22                	cmp    al,0x22
      a6:	74 7d                	je     0x125
      a8:	3c 0d                	cmp    al,0xd
      aa:	75 ee                	jne    0x9a
      ac:	b0 00                	mov    al,0x0
      ae:	aa                   	stos   BYTE PTR es:[di],al
      af:	53                   	push   bx
      b0:	41                   	inc    cx
      b1:	16                   	push   ss
      b2:	1f                   	pop    ds
      b3:	89 e6                	mov    si,sp
      b5:	89 e7                	mov    di,sp
      b7:	89 d3                	mov    bx,dx
      b9:	89 ca                	mov    dx,cx
      bb:	d1 e9                	shr    cx,1
      bd:	e3 08                	jcxz   0xc7
      bf:	ad                   	lods   ax,WORD PTR ds:[si]
      c0:	87 07                	xchg   WORD PTR [bx],ax
      c2:	ab                   	stos   WORD PTR es:[di],ax
      c3:	4b                   	dec    bx
      c4:	4b                   	dec    bx
      c5:	e2 f8                	loop   0xbf
      c7:	89 e0                	mov    ax,sp
      c9:	89 2e a0 18          	mov    WORD PTR ds:0x18a0,bp
      cd:	55                   	push   bp
      ce:	50                   	push   ax
      cf:	52                   	push   dx
      d0:	e8 6c f0             	call   0xf13f
      d3:	83 c4 06             	add    sp,0x6
      d6:	50                   	push   ax
      d7:	e8 bf 00             	call   0x199
      da:	26 c6 05 5c          	mov    BYTE PTR es:[di],0x5c
      de:	47                   	inc    di
      df:	aa                   	stos   BYTE PTR es:[di],al
      e0:	ac                   	lods   al,BYTE PTR ds:[si]
      e1:	3c 22                	cmp    al,0x22
      e3:	74 38                	je     0x11d
      e5:	3c 0d                	cmp    al,0xd
      e7:	74 c3                	je     0xac
      e9:	3c 5c                	cmp    al,0x5c
      eb:	75 f2                	jne    0xdf
      ed:	ac                   	lods   al,BYTE PTR ds:[si]
      ee:	3c 22                	cmp    al,0x22
      f0:	74 42                	je     0x134
      f2:	3c 0d                	cmp    al,0xd
      f4:	74 38                	je     0x12e
      f6:	3c 5c                	cmp    al,0x5c
      f8:	75 e0                	jne    0xda
      fa:	b0 5c                	mov    al,0x5c
      fc:	aa                   	stos   BYTE PTR es:[di],al
      fd:	eb ee                	jmp    0xed
      ff:	b0 5c                	mov    al,0x5c
     101:	aa                   	stos   BYTE PTR es:[di],al
     102:	ac                   	lods   al,BYTE PTR ds:[si]
     103:	3c 20                	cmp    al,0x20
     105:	74 13                	je     0x11a
     107:	3c 22                	cmp    al,0x22
     109:	74 2d                	je     0x138
     10b:	3c 0d                	cmp    al,0xd
     10d:	74 1f                	je     0x12e
     10f:	3c 5c                	cmp    al,0x5c
     111:	74 ec                	je     0xff
     113:	26 c6 05 5c          	mov    BYTE PTR es:[di],0x5c
     117:	47                   	inc    di
     118:	eb 84                	jmp    0x9e
     11a:	b0 5c                	mov    al,0x5c
     11c:	aa                   	stos   BYTE PTR es:[di],al
     11d:	b0 00                	mov    al,0x0
     11f:	aa                   	stos   BYTE PTR es:[di],al
     120:	53                   	push   bx
     121:	41                   	inc    cx
     122:	e9 66 ff             	jmp    0x8b
     125:	b0 00                	mov    al,0x0
     127:	aa                   	stos   BYTE PTR es:[di],al
     128:	53                   	push   bx
     129:	41                   	inc    cx
     12a:	89 fb                	mov    bx,di
     12c:	eb b2                	jmp    0xe0
     12e:	b0 5c                	mov    al,0x5c
     130:	aa                   	stos   BYTE PTR es:[di],al
     131:	e9 78 ff             	jmp    0xac
     134:	b0 22                	mov    al,0x22
     136:	eb a7                	jmp    0xdf
     138:	b0 22                	mov    al,0x22
     13a:	e9 61 ff             	jmp    0x9e
     13d:	e8 06 00             	call   0x146
     140:	5b                   	pop    bx
     141:	58                   	pop    ax
     142:	b4 4c                	mov    ah,0x4c
     144:	cd 21                	int    0x21
     146:	80 3e 02 1a 00       	cmp    BYTE PTR ds:0x1a02,0x0
     14b:	75 2f                	jne    0x17c
     14d:	56                   	push   si
     14e:	57                   	push   di
     14f:	be 2a 00             	mov    si,0x2a
     152:	81 ee 26 00          	sub    si,0x26
     156:	d1 fe                	sar    si,1
     158:	4e                   	dec    si
     159:	bf 26 00             	mov    di,0x26
     15c:	a1 04 1a             	mov    ax,ds:0x1a04
     15f:	39 f0                	cmp    ax,si
     161:	73 11                	jae    0x174
     163:	40                   	inc    ax
     164:	a3 04 1a             	mov    ds:0x1a04,ax
     167:	d1 e0                	shl    ax,1
     169:	89 c3                	mov    bx,ax
     16b:	ff 11                	call   WORD PTR [bx+di]
     16d:	a1 04 1a             	mov    ax,ds:0x1a04
     170:	39 c6                	cmp    si,ax
     172:	77 ef                	ja     0x163
     174:	c6 06 02 1a 01       	mov    BYTE PTR ds:0x1a02,0x1
     179:	5f                   	pop    di
     17a:	5e                   	pop    si
     17b:	c3                   	ret    
     17c:	c3                   	ret    
     17d:	c3                   	ret    
     17e:	a1 22 00             	mov    ax,ds:0x22
     181:	83 f8 ff             	cmp    ax,0xffff
     184:	74 12                	je     0x198
     186:	56                   	push   si
     187:	be 22 00             	mov    si,0x22
     18a:	ff d0                	call   ax
     18c:	83 c6 fe             	add    si,0xfffe
     18f:	8b 04                	mov    ax,WORD PTR [si]
     191:	83 f8 ff             	cmp    ax,0xffff
     194:	75 f4                	jne    0x18a
     196:	5e                   	pop    si
     197:	c3                   	ret    
     198:	c3                   	ret    
     199:	56                   	push   si
     19a:	89 e3                	mov    bx,sp
     19c:	8b 77 04             	mov    si,WORD PTR [bx+0x4]
     19f:	31 c0                	xor    ax,ax
     1a1:	50                   	push   ax
     1a2:	56                   	push   si
     1a3:	e8 2c 5d             	call   0x5ed2
     1a6:	8b 1e 50 10          	mov    bx,WORD PTR ds:0x1050
     1aa:	8b 47 14             	mov    ax,WORD PTR [bx+0x14]
     1ad:	83 c4 04             	add    sp,0x4
     1b0:	21 c0                	and    ax,ax
     1b2:	74 06                	je     0x1ba
     1b4:	53                   	push   bx
     1b5:	ff d0                	call   ax
     1b7:	83 c4 02             	add    sp,0x2
     1ba:	56                   	push   si
     1bb:	e8 7f ff             	call   0x13d
     1be:	56                   	push   si
     1bf:	57                   	push   di
     1c0:	06                   	push   es
     1c1:	55                   	push   bp
     1c2:	89 e5                	mov    bp,sp
     1c4:	8b 76 0a             	mov    si,WORD PTR [bp+0xa]
     1c7:	8b 7e 0c             	mov    di,WORD PTR [bp+0xc]
     1ca:	21 ff                	and    di,di
     1cc:	75 0d                	jne    0x1db
     1ce:	31 c0                	xor    ax,ax
     1d0:	8e c0                	mov    es,ax
     1d2:	8c c0                	mov    ax,es
     1d4:	89 ec                	mov    sp,bp
     1d6:	5d                   	pop    bp
     1d7:	07                   	pop    es
     1d8:	5f                   	pop    di
     1d9:	5e                   	pop    si
     1da:	c3                   	ret    
     1db:	21 f6                	and    si,si
     1dd:	74 0d                	je     0x1ec
     1df:	83 7c 0c 00          	cmp    WORD PTR [si+0xc],0x0
     1e3:	75 07                	jne    0x1ec
     1e5:	56                   	push   si
     1e6:	e8 84 06             	call   0x86d
     1e9:	83 c4 02             	add    sp,0x2
     1ec:	81 ff 3e 10          	cmp    di,0x103e
     1f0:	75 73                	jne    0x265
     1f2:	8b 7c 02             	mov    di,WORD PTR [si+0x2]
     1f5:	83 7d 06 00          	cmp    WORD PTR [di+0x6],0x0
     1f9:	74 d3                	je     0x1ce
     1fb:	57                   	push   di
     1fc:	56                   	push   si
     1fd:	e8 df 00             	call   0x2df
     200:	8e c0                	mov    es,ax
     202:	8b 45 1a             	mov    ax,WORD PTR [di+0x1a]
     205:	83 c4 04             	add    sp,0x4
     208:	21 c0                	and    ax,ax
     20a:	74 12                	je     0x21e
     20c:	ff 75 12             	push   WORD PTR [di+0x12]
     20f:	56                   	push   si
     210:	ff d0                	call   ax
     212:	83 c4 04             	add    sp,0x4
     215:	21 c0                	and    ax,ax
     217:	7d 05                	jge    0x21e
     219:	b8 ff ff             	mov    ax,0xffff
     21c:	8e c0                	mov    es,ax
     21e:	f6 45 06 80          	test   BYTE PTR [di+0x6],0x80
     222:	74 0a                	je     0x22e
     224:	ff 75 0a             	push   WORD PTR [di+0xa]
     227:	56                   	push   si
     228:	e8 7e 15             	call   0x17a9
     22b:	83 c4 04             	add    sp,0x4
     22e:	8b 45 1c             	mov    ax,WORD PTR [di+0x1c]
     231:	21 c0                	and    ax,ax
     233:	74 14                	je     0x249
     235:	8d 55 24             	lea    dx,[di+0x24]
     238:	39 d0                	cmp    ax,dx
     23a:	74 08                	je     0x244
     23c:	50                   	push   ax
     23d:	56                   	push   si
     23e:	e8 68 15             	call   0x17a9
     241:	83 c4 04             	add    sp,0x4
     244:	c7 45 1c 00 00       	mov    WORD PTR [di+0x1c],0x0
     249:	8b 45 28             	mov    ax,WORD PTR [di+0x28]
     24c:	21 c0                	and    ax,ax
     24e:	74 0d                	je     0x25d
     250:	50                   	push   ax
     251:	56                   	push   si
     252:	e8 54 15             	call   0x17a9
     255:	c7 45 28 00 00       	mov    WORD PTR [di+0x28],0x0
     25a:	83 c4 04             	add    sp,0x4
     25d:	c7 45 06 00 00       	mov    WORD PTR [di+0x6],0x0
     262:	e9 6d ff             	jmp    0x1d2
     265:	81 ff 2c 10          	cmp    di,0x102c
     269:	75 05                	jne    0x270
     26b:	8b 7c 04             	mov    di,WORD PTR [si+0x4]
     26e:	eb 85                	jmp    0x1f5
     270:	81 ff 1a 10          	cmp    di,0x101a
     274:	74 03                	je     0x279
     276:	e9 7c ff             	jmp    0x1f5
     279:	8b 7c 06             	mov    di,WORD PTR [si+0x6]
     27c:	e9 76 ff             	jmp    0x1f5
     27f:	55                   	push   bp
     280:	89 e5                	mov    bp,sp
     282:	ff 76 04             	push   WORD PTR [bp+0x4]
     285:	ff 36 a2 18          	push   WORD PTR ds:0x18a2
     289:	e8 32 ff             	call   0x1be
     28c:	83 c4 04             	add    sp,0x4
     28f:	89 ec                	mov    sp,bp
     291:	5d                   	pop    bp
     292:	c3                   	ret    
     293:	56                   	push   si
     294:	57                   	push   di
     295:	55                   	push   bp
     296:	89 e5                	mov    bp,sp
     298:	8b 76 08             	mov    si,WORD PTR [bp+0x8]
     29b:	8b 3e a2 18          	mov    di,WORD PTR ds:0x18a2
     29f:	21 ff                	and    di,di
     2a1:	74 0d                	je     0x2b0
     2a3:	83 7d 0c 00          	cmp    WORD PTR [di+0xc],0x0
     2a7:	75 07                	jne    0x2b0
     2a9:	57                   	push   di
     2aa:	e8 c0 05             	call   0x86d
     2ad:	83 c4 02             	add    sp,0x2
     2b0:	81 fe 3e 10          	cmp    si,0x103e
     2b4:	75 13                	jne    0x2c9
     2b6:	8b 75 02             	mov    si,WORD PTR [di+0x2]
     2b9:	8b 44 06             	mov    ax,WORD PTR [si+0x6]
     2bc:	b1 05                	mov    cl,0x5
     2be:	d3 e8                	shr    ax,cl
     2c0:	83 e0 01             	and    ax,0x1
     2c3:	89 ec                	mov    sp,bp
     2c5:	5d                   	pop    bp
     2c6:	5f                   	pop    di
     2c7:	5e                   	pop    si
     2c8:	c3                   	ret    
     2c9:	81 fe 2c 10          	cmp    si,0x102c
     2cd:	75 05                	jne    0x2d4
     2cf:	8b 75 04             	mov    si,WORD PTR [di+0x4]
     2d2:	eb e5                	jmp    0x2b9
     2d4:	81 fe 1a 10          	cmp    si,0x101a
     2d8:	75 df                	jne    0x2b9
     2da:	8b 75 06             	mov    si,WORD PTR [di+0x6]
     2dd:	eb da                	jmp    0x2b9
     2df:	56                   	push   si
     2e0:	57                   	push   di
     2e1:	06                   	push   es
     2e2:	55                   	push   bp
     2e3:	89 e5                	mov    bp,sp
     2e5:	1e                   	push   ds
     2e6:	1e                   	push   ds
     2e7:	8b 76 0c             	mov    si,WORD PTR [bp+0xc]
     2ea:	8b 54 06             	mov    dx,WORD PTR [si+0x6]
     2ed:	89 d0                	mov    ax,dx
     2ef:	83 e0 08             	and    ax,0x8
     2f2:	89 46 fc             	mov    WORD PTR [bp-0x4],ax
     2f5:	74 03                	je     0x2fa
     2f7:	e9 61 01             	jmp    0x45b
     2fa:	36 83 7c 02 00       	cmp    WORD PTR ss:[si+0x2],0x0
     2ff:	7f 13                	jg     0x314
     301:	36 83 7c 22 00       	cmp    WORD PTR ss:[si+0x22],0x0
     306:	7f 0c                	jg     0x314
     308:	31 ff                	xor    di,di
     30a:	97                   	xchg   di,ax
     30b:	89 ec                	mov    sp,bp
     30d:	5d                   	pop    bp
     30e:	07                   	pop    es
     30f:	5f                   	pop    di
     310:	5e                   	pop    si
     311:	16                   	push   ss
     312:	1f                   	pop    ds
     313:	c3                   	ret    
     314:	8b 44 18             	mov    ax,WORD PTR [si+0x18]
     317:	21 c0                	and    ax,ax
     319:	74 ed                	je     0x308
     31b:	8b 5e 0a             	mov    bx,WORD PTR [bp+0xa]
     31e:	8e 07                	mov    es,WORD PTR [bx]
     320:	c7 07 00 00          	mov    WORD PTR [bx],0x0
     324:	81 e2 00 10          	and    dx,0x1000
     328:	89 d7                	mov    di,dx
     32a:	75 03                	jne    0x32f
     32c:	e9 d9 00             	jmp    0x408
     32f:	8b 4c 2e             	mov    cx,WORD PTR [si+0x2e]
     332:	8b 44 30             	mov    ax,WORD PTR [si+0x30]
     335:	89 46 fe             	mov    WORD PTR [bp-0x2],ax
     338:	36 f6 44 06 04       	test   BYTE PTR ss:[si+0x6],0x4
     33d:	74 19                	je     0x358
     33f:	8b 44 02             	mov    ax,WORD PTR [si+0x2]
     342:	99                   	cwd    
     343:	29 c1                	sub    cx,ax
     345:	19 56 fe             	sbb    WORD PTR [bp-0x2],dx
     348:	36 83 7c 1c 00       	cmp    WORD PTR ss:[si+0x1c],0x0
     34d:	74 09                	je     0x358
     34f:	8b 44 22             	mov    ax,WORD PTR [si+0x22]
     352:	99                   	cwd    
     353:	29 c1                	sub    cx,ax
     355:	19 56 fe             	sbb    WORD PTR [bp-0x2],dx
     358:	31 c0                	xor    ax,ax
     35a:	50                   	push   ax
     35b:	ff 76 fe             	push   WORD PTR [bp-0x2]
     35e:	51                   	push   cx
     35f:	36 ff 74 12          	push   WORD PTR ss:[si+0x12]
     363:	ff 76 0a             	push   WORD PTR [bp+0xa]
     366:	36 ff 54 18          	call   WORD PTR ss:[si+0x18]
     36a:	89 46 fe             	mov    WORD PTR [bp-0x2],ax
     36d:	8e da                	mov    ds,dx
     36f:	83 c4 0a             	add    sp,0xa
     372:	83 f8 ff             	cmp    ax,0xffff
     375:	36 8b 7c 06          	mov    di,WORD PTR ss:[si+0x6]
     379:	75 2b                	jne    0x3a6
     37b:	83 fa ff             	cmp    dx,0xffff
     37e:	75 26                	jne    0x3a6
     380:	8b 5e 0a             	mov    bx,WORD PTR [bp+0xa]
     383:	36 8b 0f             	mov    cx,WORD PTR ss:[bx]
     386:	83 f9 01             	cmp    cx,0x1
     389:	18 db                	sbb    bl,bl
     38b:	f6 db                	neg    bl
     38d:	81 f9 15 01          	cmp    cx,0x115
     391:	9f                   	lahf   
     392:	d0 e4                	shl    ah,1
     394:	99                   	cwd    
     395:	88 d7                	mov    bh,dl
     397:	f6 df                	neg    bh
     399:	08 fb                	or     bl,bh
     39b:	75 09                	jne    0x3a6
     39d:	81 f9 10 01          	cmp    cx,0x110
     3a1:	74 03                	je     0x3a6
     3a3:	e9 a7 00             	jmp    0x44d
     3a6:	36 c7 44 02 00 00    	mov    WORD PTR ss:[si+0x2],0x0
     3ac:	36 8b 4c 0a          	mov    cx,WORD PTR ss:[si+0xa]
     3b0:	36 89 0c             	mov    WORD PTR ss:[si],cx
     3b3:	f7 c7 00 10          	test   di,0x1000
     3b7:	74 21                	je     0x3da
     3b9:	83 7e fe ff          	cmp    WORD PTR [bp-0x2],0xffff
     3bd:	75 10                	jne    0x3cf
     3bf:	8c d8                	mov    ax,ds
     3c1:	83 f8 ff             	cmp    ax,0xffff
     3c4:	75 09                	jne    0x3cf
     3c6:	8b 5e 0a             	mov    bx,WORD PTR [bp+0xa]
     3c9:	36 83 3f 00          	cmp    WORD PTR ss:[bx],0x0
     3cd:	75 0b                	jne    0x3da
     3cf:	8b 46 fe             	mov    ax,WORD PTR [bp-0x2]
     3d2:	36 89 44 2e          	mov    WORD PTR ss:[si+0x2e],ax
     3d6:	36 8c 5c 30          	mov    WORD PTR ss:[si+0x30],ds
     3da:	8b 5e 0a             	mov    bx,WORD PTR [bp+0xa]
     3dd:	36 8c 07             	mov    WORD PTR ss:[bx],es
     3e0:	36 8b 44 1c          	mov    ax,WORD PTR ss:[si+0x1c]
     3e4:	21 c0                	and    ax,ax
     3e6:	75 03                	jne    0x3eb
     3e8:	e9 1d ff             	jmp    0x308
     3eb:	8d 54 24             	lea    dx,[si+0x24]
     3ee:	39 d0                	cmp    ax,dx
     3f0:	74 0a                	je     0x3fc
     3f2:	50                   	push   ax
     3f3:	53                   	push   bx
     3f4:	16                   	push   ss
     3f5:	1f                   	pop    ds
     3f6:	e8 b0 13             	call   0x17a9
     3f9:	83 c4 04             	add    sp,0x4
     3fc:	36 c7 44 1c 00 00    	mov    WORD PTR ss:[si+0x1c],0x0
     402:	8b 7e fc             	mov    di,WORD PTR [bp-0x4]
     405:	e9 02 ff             	jmp    0x30a
     408:	ba 01 00             	mov    dx,0x1
     40b:	52                   	push   dx
     40c:	57                   	push   di
     40d:	57                   	push   di
     40e:	36 ff 74 12          	push   WORD PTR ss:[si+0x12]
     412:	ff 76 0a             	push   WORD PTR [bp+0xa]
     415:	ff d0                	call   ax
     417:	89 c1                	mov    cx,ax
     419:	89 56 fe             	mov    WORD PTR [bp-0x2],dx
     41c:	83 c4 0a             	add    sp,0xa
     41f:	83 f8 ff             	cmp    ax,0xffff
     422:	74 03                	je     0x427
     424:	e9 11 ff             	jmp    0x338
     427:	83 fa ff             	cmp    dx,0xffff
     42a:	74 03                	je     0x42f
     42c:	e9 09 ff             	jmp    0x338
     42f:	8b 5e 0a             	mov    bx,WORD PTR [bp+0xa]
     432:	8b 07                	mov    ax,WORD PTR [bx]
     434:	21 c0                	and    ax,ax
     436:	75 03                	jne    0x43b
     438:	e9 fd fe             	jmp    0x338
     43b:	3d 15 01             	cmp    ax,0x115
     43e:	74 05                	je     0x445
     440:	3d 10 01             	cmp    ax,0x110
     443:	75 52                	jne    0x497
     445:	8b 5e 0a             	mov    bx,WORD PTR [bp+0xa]
     448:	8c 07                	mov    WORD PTR [bx],es
     44a:	e9 bd fe             	jmp    0x30a
     44d:	97                   	xchg   di,ax
     44e:	83 c8 40             	or     ax,0x40
     451:	36 89 44 06          	mov    WORD PTR ss:[si+0x6],ax
     455:	bf ff ff             	mov    di,0xffff
     458:	e9 af fe             	jmp    0x30a
     45b:	8b 4c 0a             	mov    cx,WORD PTR [si+0xa]
     45e:	21 c9                	and    cx,cx
     460:	75 03                	jne    0x465
     462:	e9 a3 fe             	jmp    0x308
     465:	8b 3c                	mov    di,WORD PTR [si]
     467:	29 cf                	sub    di,cx
     469:	89 0c                	mov    WORD PTR [si],cx
     46b:	f6 c2 03             	test   dl,0x3
     46e:	75 2e                	jne    0x49e
     470:	8b 44 0c             	mov    ax,WORD PTR [si+0xc]
     473:	89 44 04             	mov    WORD PTR [si+0x4],ax
     476:	21 ff                	and    di,di
     478:	7f 03                	jg     0x47d
     47a:	e9 8b fe             	jmp    0x308
     47d:	57                   	push   di
     47e:	51                   	push   cx
     47f:	89 4e fe             	mov    WORD PTR [bp-0x2],cx
     482:	36 ff 74 12          	push   WORD PTR ss:[si+0x12]
     486:	ff 76 0a             	push   WORD PTR [bp+0xa]
     489:	36 ff 54 16          	call   WORD PTR ss:[si+0x16]
     48d:	83 c4 08             	add    sp,0x8
     490:	21 c0                	and    ax,ax
     492:	8b 4e fe             	mov    cx,WORD PTR [bp-0x2]
     495:	7f 0b                	jg     0x4a2
     497:	36 80 4c 06 40       	or     BYTE PTR ss:[si+0x6],0x40
     49c:	eb b7                	jmp    0x455
     49e:	31 c0                	xor    ax,ax
     4a0:	eb d1                	jmp    0x473
     4a2:	01 c1                	add    cx,ax
     4a4:	29 c7                	sub    di,ax
     4a6:	eb ce                	jmp    0x476
     4a8:	56                   	push   si
     4a9:	57                   	push   di
     4aa:	55                   	push   bp
     4ab:	89 e5                	mov    bp,sp
     4ad:	8b 7e 08             	mov    di,WORD PTR [bp+0x8]
     4b0:	8b 76 0a             	mov    si,WORD PTR [bp+0xa]
     4b3:	83 7c 0a 00          	cmp    WORD PTR [si+0xa],0x0
     4b7:	74 44                	je     0x4fd
     4b9:	21 ff                	and    di,di
     4bb:	74 0d                	je     0x4ca
     4bd:	83 7d 0c 00          	cmp    WORD PTR [di+0xc],0x0
     4c1:	75 07                	jne    0x4ca
     4c3:	57                   	push   di
     4c4:	e8 a6 03             	call   0x86d
     4c7:	83 c4 02             	add    sp,0x2
     4ca:	81 fe 3e 10          	cmp    si,0x103e
     4ce:	75 17                	jne    0x4e7
     4d0:	8b 75 02             	mov    si,WORD PTR [di+0x2]
     4d3:	83 7c 06 00          	cmp    WORD PTR [si+0x6],0x0
     4d7:	74 24                	je     0x4fd
     4d9:	89 76 0a             	mov    WORD PTR [bp+0xa],si
     4dc:	89 7e 08             	mov    WORD PTR [bp+0x8],di
     4df:	89 ec                	mov    sp,bp
     4e1:	5d                   	pop    bp
     4e2:	5f                   	pop    di
     4e3:	5e                   	pop    si
     4e4:	e9 f8 fd             	jmp    0x2df
     4e7:	81 fe 2c 10          	cmp    si,0x102c
     4eb:	75 05                	jne    0x4f2
     4ed:	8b 75 04             	mov    si,WORD PTR [di+0x4]
     4f0:	eb e1                	jmp    0x4d3
     4f2:	81 fe 1a 10          	cmp    si,0x101a
     4f6:	75 db                	jne    0x4d3
     4f8:	8b 75 06             	mov    si,WORD PTR [di+0x6]
     4fb:	eb d6                	jmp    0x4d3
     4fd:	31 c0                	xor    ax,ax
     4ff:	89 ec                	mov    sp,bp
     501:	5d                   	pop    bp
     502:	5f                   	pop    di
     503:	5e                   	pop    si
     504:	c3                   	ret    
     505:	55                   	push   bp
     506:	89 e5                	mov    bp,sp
     508:	8b 46 04             	mov    ax,WORD PTR [bp+0x4]
     50b:	21 c0                	and    ax,ax
     50d:	75 12                	jne    0x521
     50f:	b8 a8 04             	mov    ax,0x4a8
     512:	50                   	push   ax
     513:	ff 36 50 10          	push   WORD PTR ds:0x1050
     517:	e8 1e 0f             	call   0x1438
     51a:	83 c4 04             	add    sp,0x4
     51d:	89 ec                	mov    sp,bp
     51f:	5d                   	pop    bp
     520:	c3                   	ret    
     521:	50                   	push   ax
     522:	ff 36 a2 18          	push   WORD PTR ds:0x18a2
     526:	e8 7f ff             	call   0x4a8
     529:	eb ef                	jmp    0x51a
     52b:	56                   	push   si
     52c:	57                   	push   di
     52d:	55                   	push   bp
     52e:	89 e5                	mov    bp,sp
     530:	1e                   	push   ds
     531:	8b 76 08             	mov    si,WORD PTR [bp+0x8]
     534:	8b 7e 0a             	mov    di,WORD PTR [bp+0xa]
     537:	21 f6                	and    si,si
     539:	74 0d                	je     0x548
     53b:	83 7c 0c 00          	cmp    WORD PTR [si+0xc],0x0
     53f:	75 07                	jne    0x548
     541:	56                   	push   si
     542:	e8 28 03             	call   0x86d
     545:	83 c4 02             	add    sp,0x2
     548:	81 ff 3e 10          	cmp    di,0x103e
     54c:	75 57                	jne    0x5a5
     54e:	8b 7c 02             	mov    di,WORD PTR [si+0x2]
     551:	8b 45 02             	mov    ax,WORD PTR [di+0x2]
     554:	48                   	dec    ax
     555:	89 45 02             	mov    WORD PTR [di+0x2],ax
     558:	21 c0                	and    ax,ax
     55a:	7d 5f                	jge    0x5bb
     55c:	57                   	push   di
     55d:	56                   	push   si
     55e:	e8 a3 19             	call   0x1f04
     561:	83 c4 04             	add    sp,0x4
     564:	8b 55 07             	mov    dx,WORD PTR [di+0x7]
     567:	b1 06                	mov    cl,0x6
     569:	d3 ea                	shr    dx,cl
     56b:	83 e2 01             	and    dx,0x1
     56e:	89 56 fe             	mov    WORD PTR [bp-0x2],dx
     571:	80 7e fe 00          	cmp    BYTE PTR [bp-0x2],0x0
     575:	74 28                	je     0x59f
     577:	83 f8 0d             	cmp    ax,0xd
     57a:	75 23                	jne    0x59f
     57c:	8b 45 02             	mov    ax,WORD PTR [di+0x2]
     57f:	48                   	dec    ax
     580:	89 45 02             	mov    WORD PTR [di+0x2],ax
     583:	21 c0                	and    ax,ax
     585:	7d 41                	jge    0x5c8
     587:	57                   	push   di
     588:	56                   	push   si
     589:	e8 78 19             	call   0x1f04
     58c:	83 c4 04             	add    sp,0x4
     58f:	83 f8 0a             	cmp    ax,0xa
     592:	74 0b                	je     0x59f
     594:	57                   	push   di
     595:	50                   	push   ax
     596:	e8 83 43             	call   0x491c
     599:	83 c4 04             	add    sp,0x4
     59c:	b8 0d 00             	mov    ax,0xd
     59f:	89 ec                	mov    sp,bp
     5a1:	5d                   	pop    bp
     5a2:	5f                   	pop    di
     5a3:	5e                   	pop    si
     5a4:	c3                   	ret    
     5a5:	81 ff 2c 10          	cmp    di,0x102c
     5a9:	75 05                	jne    0x5b0
     5ab:	8b 7c 04             	mov    di,WORD PTR [si+0x4]
     5ae:	eb a1                	jmp    0x551
     5b0:	81 ff 1a 10          	cmp    di,0x101a
     5b4:	75 9b                	jne    0x551
     5b6:	8b 7c 06             	mov    di,WORD PTR [si+0x6]
     5b9:	eb 96                	jmp    0x551
     5bb:	8b 1d                	mov    bx,WORD PTR [di]
     5bd:	8d 47 01             	lea    ax,[bx+0x1]
     5c0:	89 05                	mov    WORD PTR [di],ax
     5c2:	8a 07                	mov    al,BYTE PTR [bx]
     5c4:	30 e4                	xor    ah,ah
     5c6:	eb 9c                	jmp    0x564
     5c8:	8b 1d                	mov    bx,WORD PTR [di]
     5ca:	8d 47 01             	lea    ax,[bx+0x1]
     5cd:	89 05                	mov    WORD PTR [di],ax
     5cf:	8a 07                	mov    al,BYTE PTR [bx]
     5d1:	30 e4                	xor    ah,ah
     5d3:	eb ba                	jmp    0x58f
     5d5:	55                   	push   bp
     5d6:	89 e5                	mov    bp,sp
     5d8:	ff 76 04             	push   WORD PTR [bp+0x4]
     5db:	ff 36 a2 18          	push   WORD PTR ds:0x18a2
     5df:	e8 49 ff             	call   0x52b
     5e2:	83 c4 04             	add    sp,0x4
     5e5:	89 ec                	mov    sp,bp
     5e7:	5d                   	pop    bp
     5e8:	c3                   	ret    
     5e9:	56                   	push   si
     5ea:	57                   	push   di
     5eb:	06                   	push   es
     5ec:	55                   	push   bp
     5ed:	89 e5                	mov    bp,sp
     5ef:	83 ec 06             	sub    sp,0x6
     5f2:	8e 46 0a             	mov    es,WORD PTR [bp+0xa]
     5f5:	8b 7e 10             	mov    di,WORD PTR [bp+0x10]
     5f8:	83 7e 0e 01          	cmp    WORD PTR [bp+0xe],0x1
     5fc:	7f 09                	jg     0x607
     5fe:	31 c0                	xor    ax,ax
     600:	89 ec                	mov    sp,bp
     602:	5d                   	pop    bp
     603:	07                   	pop    es
     604:	5f                   	pop    di
     605:	5e                   	pop    si
     606:	c3                   	ret    
     607:	8c c0                	mov    ax,es
     609:	21 c0                	and    ax,ax
     60b:	74 0f                	je     0x61c
     60d:	8c c3                	mov    bx,es
     60f:	83 7f 0c 00          	cmp    WORD PTR [bx+0xc],0x0
     613:	75 07                	jne    0x61c
     615:	06                   	push   es
     616:	e8 54 02             	call   0x86d
     619:	83 c4 02             	add    sp,0x2
     61c:	81 ff 3e 10          	cmp    di,0x103e
     620:	75 42                	jne    0x664
     622:	8c c3                	mov    bx,es
     624:	8b 7f 02             	mov    di,WORD PTR [bx+0x2]
     627:	f6 45 07 40          	test   BYTE PTR [di+0x7],0x40
     62b:	75 51                	jne    0x67e
     62d:	8b 46 0e             	mov    ax,WORD PTR [bp+0xe]
     630:	48                   	dec    ax
     631:	89 46 fc             	mov    WORD PTR [bp-0x4],ax
     634:	8b 46 0c             	mov    ax,WORD PTR [bp+0xc]
     637:	89 46 fe             	mov    WORD PTR [bp-0x2],ax
     63a:	8b 75 02             	mov    si,WORD PTR [di+0x2]
     63d:	21 f6                	and    si,si
     63f:	74 03                	je     0x644
     641:	e9 d5 00             	jmp    0x719
     644:	57                   	push   di
     645:	06                   	push   es
     646:	e8 56 17             	call   0x1d9f
     649:	83 c4 04             	add    sp,0x4
     64c:	21 c0                	and    ax,ax
     64e:	75 03                	jne    0x653
     650:	e9 c3 00             	jmp    0x716
     653:	8b 46 fe             	mov    ax,WORD PTR [bp-0x2]
     656:	3b 46 0c             	cmp    ax,WORD PTR [bp+0xc]
     659:	74 a3                	je     0x5fe
     65b:	8b 5e fe             	mov    bx,WORD PTR [bp-0x2]
     65e:	c6 07 00             	mov    BYTE PTR [bx],0x0
     661:	e9 8b 00             	jmp    0x6ef
     664:	81 ff 2c 10          	cmp    di,0x102c
     668:	75 07                	jne    0x671
     66a:	8c c3                	mov    bx,es
     66c:	8b 7f 04             	mov    di,WORD PTR [bx+0x4]
     66f:	eb b6                	jmp    0x627
     671:	81 ff 1a 10          	cmp    di,0x101a
     675:	75 b0                	jne    0x627
     677:	8c c3                	mov    bx,es
     679:	8b 7f 06             	mov    di,WORD PTR [bx+0x6]
     67c:	eb a9                	jmp    0x627
     67e:	8b 76 0c             	mov    si,WORD PTR [bp+0xc]
     681:	31 c0                	xor    ax,ax
     683:	ff 4e 0e             	dec    WORD PTR [bp+0xe]
     686:	74 57                	je     0x6df
     688:	8b 45 02             	mov    ax,WORD PTR [di+0x2]
     68b:	48                   	dec    ax
     68c:	89 45 02             	mov    WORD PTR [di+0x2],ax
     68f:	21 c0                	and    ax,ax
     691:	7d 62                	jge    0x6f5
     693:	57                   	push   di
     694:	06                   	push   es
     695:	e8 6c 18             	call   0x1f04
     698:	83 c4 04             	add    sp,0x4
     69b:	8b 55 07             	mov    dx,WORD PTR [di+0x7]
     69e:	b1 06                	mov    cl,0x6
     6a0:	d3 ea                	shr    dx,cl
     6a2:	83 e2 01             	and    dx,0x1
     6a5:	89 56 fe             	mov    WORD PTR [bp-0x2],dx
     6a8:	80 7e fe 00          	cmp    BYTE PTR [bp-0x2],0x0
     6ac:	74 61                	je     0x70f
     6ae:	83 f8 0d             	cmp    ax,0xd
     6b1:	75 5c                	jne    0x70f
     6b3:	8b 45 02             	mov    ax,WORD PTR [di+0x2]
     6b6:	48                   	dec    ax
     6b7:	89 45 02             	mov    WORD PTR [di+0x2],ax
     6ba:	21 c0                	and    ax,ax
     6bc:	7d 44                	jge    0x702
     6be:	57                   	push   di
     6bf:	06                   	push   es
     6c0:	e8 41 18             	call   0x1f04
     6c3:	83 c4 04             	add    sp,0x4
     6c6:	83 f8 0a             	cmp    ax,0xa
     6c9:	74 0b                	je     0x6d6
     6cb:	57                   	push   di
     6cc:	50                   	push   ax
     6cd:	e8 4c 42             	call   0x491c
     6d0:	83 c4 04             	add    sp,0x4
     6d3:	b8 0d 00             	mov    ax,0xd
     6d6:	46                   	inc    si
     6d7:	88 44 ff             	mov    BYTE PTR [si-0x1],al
     6da:	83 f8 0a             	cmp    ax,0xa
     6dd:	75 a4                	jne    0x683
     6df:	83 f8 ff             	cmp    ax,0xffff
     6e2:	72 08                	jb     0x6ec
     6e4:	3b 76 0c             	cmp    si,WORD PTR [bp+0xc]
     6e7:	75 03                	jne    0x6ec
     6e9:	e9 12 ff             	jmp    0x5fe
     6ec:	c6 04 00             	mov    BYTE PTR [si],0x0
     6ef:	8b 46 0c             	mov    ax,WORD PTR [bp+0xc]
     6f2:	e9 0b ff             	jmp    0x600
     6f5:	8b 1d                	mov    bx,WORD PTR [di]
     6f7:	8d 47 01             	lea    ax,[bx+0x1]
     6fa:	89 05                	mov    WORD PTR [di],ax
     6fc:	8a 07                	mov    al,BYTE PTR [bx]
     6fe:	30 e4                	xor    ah,ah
     700:	eb 99                	jmp    0x69b
     702:	8b 1d                	mov    bx,WORD PTR [di]
     704:	8d 47 01             	lea    ax,[bx+0x1]
     707:	89 05                	mov    WORD PTR [di],ax
     709:	8a 07                	mov    al,BYTE PTR [bx]
     70b:	30 e4                	xor    ah,ah
     70d:	eb b7                	jmp    0x6c6
     70f:	83 f8 ff             	cmp    ax,0xffff
     712:	75 c2                	jne    0x6d6
     714:	eb c9                	jmp    0x6df
     716:	8b 75 02             	mov    si,WORD PTR [di+0x2]
     719:	8b 0d                	mov    cx,WORD PTR [di]
     71b:	3b 76 fc             	cmp    si,WORD PTR [bp-0x4]
     71e:	76 03                	jbe    0x723
     720:	8b 76 fc             	mov    si,WORD PTR [bp-0x4]
     723:	56                   	push   si
     724:	b8 0a 00             	mov    ax,0xa
     727:	50                   	push   ax
     728:	51                   	push   cx
     729:	89 4e fa             	mov    WORD PTR [bp-0x6],cx
     72c:	e8 c4 0f             	call   0x16f3
     72f:	83 c4 06             	add    sp,0x6
     732:	21 c0                	and    ax,ax
     734:	8b 55 02             	mov    dx,WORD PTR [di+0x2]
     737:	8b 4e fa             	mov    cx,WORD PTR [bp-0x6]
     73a:	74 21                	je     0x75d
     73c:	40                   	inc    ax
     73d:	89 c6                	mov    si,ax
     73f:	29 ce                	sub    si,cx
     741:	29 f2                	sub    dx,si
     743:	89 55 02             	mov    WORD PTR [di+0x2],dx
     746:	89 05                	mov    WORD PTR [di],ax
     748:	56                   	push   si
     749:	51                   	push   cx
     74a:	ff 76 fe             	push   WORD PTR [bp-0x2]
     74d:	e8 c3 0f             	call   0x1713
     750:	8b 7e fe             	mov    di,WORD PTR [bp-0x2]
     753:	89 f3                	mov    bx,si
     755:	c6 01 00             	mov    BYTE PTR [bx+di],0x0
     758:	83 c4 06             	add    sp,0x6
     75b:	eb 92                	jmp    0x6ef
     75d:	29 f2                	sub    dx,si
     75f:	89 55 02             	mov    WORD PTR [di+0x2],dx
     762:	01 35                	add    WORD PTR [di],si
     764:	56                   	push   si
     765:	51                   	push   cx
     766:	ff 76 fe             	push   WORD PTR [bp-0x2]
     769:	e8 a7 0f             	call   0x1713
     76c:	01 76 fe             	add    WORD PTR [bp-0x2],si
     76f:	83 c4 06             	add    sp,0x6
     772:	29 76 fc             	sub    WORD PTR [bp-0x4],si
     775:	74 03                	je     0x77a
     777:	e9 c0 fe             	jmp    0x63a
     77a:	e9 de fe             	jmp    0x65b
     77d:	55                   	push   bp
     77e:	89 e5                	mov    bp,sp
     780:	ff 76 08             	push   WORD PTR [bp+0x8]
     783:	ff 76 06             	push   WORD PTR [bp+0x6]
     786:	ff 76 04             	push   WORD PTR [bp+0x4]
     789:	ff 36 a2 18          	push   WORD PTR ds:0x18a2
     78d:	e8 59 fe             	call   0x5e9
     790:	83 c4 08             	add    sp,0x8
     793:	89 ec                	mov    sp,bp
     795:	5d                   	pop    bp
     796:	c3                   	ret    
     797:	55                   	push   bp
     798:	89 e5                	mov    bp,sp
     79a:	b8 be 01             	mov    ax,0x1be
     79d:	50                   	push   ax
     79e:	ff 76 04             	push   WORD PTR [bp+0x4]
     7a1:	e8 94 0c             	call   0x1438
     7a4:	83 c4 04             	add    sp,0x4
     7a7:	89 ec                	mov    sp,bp
     7a9:	5d                   	pop    bp
     7aa:	c3                   	ret    
     7ab:	56                   	push   si
     7ac:	55                   	push   bp
     7ad:	89 e5                	mov    bp,sp
     7af:	8b 76 06             	mov    si,WORD PTR [bp+0x6]
     7b2:	c7 04 00 00          	mov    WORD PTR [si],0x0
     7b6:	c7 44 02 00 00       	mov    WORD PTR [si+0x2],0x0
     7bb:	c7 44 04 00 00       	mov    WORD PTR [si+0x4],0x0
     7c0:	8b 46 08             	mov    ax,WORD PTR [bp+0x8]
     7c3:	89 44 06             	mov    WORD PTR [si+0x6],ax
     7c6:	c7 44 38 00 00       	mov    WORD PTR [si+0x38],0x0
     7cb:	8b 46 0a             	mov    ax,WORD PTR [bp+0xa]
     7ce:	89 44 08             	mov    WORD PTR [si+0x8],ax
     7d1:	c7 44 0a 00 00       	mov    WORD PTR [si+0xa],0x0
     7d6:	c7 44 0c 00 00       	mov    WORD PTR [si+0xc],0x0
     7db:	c7 44 0e 00 00       	mov    WORD PTR [si+0xe],0x0
     7e0:	b8 06 00             	mov    ax,0x6
     7e3:	50                   	push   ax
     7e4:	31 c0                	xor    ax,ax
     7e6:	50                   	push   ax
     7e7:	8d 44 32             	lea    ax,[si+0x32]
     7ea:	50                   	push   ax
     7eb:	e8 99 0f             	call   0x1787
     7ee:	89 74 12             	mov    WORD PTR [si+0x12],si
     7f1:	c7 44 14 51 22       	mov    WORD PTR [si+0x14],0x2251
     7f6:	c7 44 16 8f 22       	mov    WORD PTR [si+0x16],0x228f
     7fb:	c7 44 18 d9 22       	mov    WORD PTR [si+0x18],0x22d9
     800:	c7 44 1a 1b 23       	mov    WORD PTR [si+0x1a],0x231b
     805:	ff 74 08             	push   WORD PTR [si+0x8]
     808:	e8 20 1b             	call   0x232b
     80b:	83 c4 08             	add    sp,0x8
     80e:	21 c0                	and    ax,ax
     810:	74 04                	je     0x816
     812:	80 4c 07 40          	or     BYTE PTR [si+0x7],0x40
     816:	89 ec                	mov    sp,bp
     818:	5d                   	pop    bp
     819:	5e                   	pop    si
     81a:	c3                   	ret    
     81b:	56                   	push   si
     81c:	57                   	push   di
     81d:	55                   	push   bp
     81e:	89 e5                	mov    bp,sp
     820:	8b 7e 0a             	mov    di,WORD PTR [bp+0xa]
     823:	4f                   	dec    di
     824:	b8 3a 00             	mov    ax,0x3a
     827:	f7 e7                	mul    di
     829:	97                   	xchg   di,ax
     82a:	8d 45 40             	lea    ax,[di+0x40]
     82d:	50                   	push   ax
     82e:	ff 76 08             	push   WORD PTR [bp+0x8]
     831:	e8 40 10             	call   0x1874
     834:	89 c6                	mov    si,ax
     836:	83 c4 04             	add    sp,0x4
     839:	21 c0                	and    ax,ax
     83b:	74 1e                	je     0x85b
     83d:	c7 04 00 00          	mov    WORD PTR [si],0x0
     841:	8b 46 0a             	mov    ax,WORD PTR [bp+0xa]
     844:	89 44 02             	mov    WORD PTR [si+0x2],ax
     847:	8d 44 06             	lea    ax,[si+0x6]
     84a:	89 44 04             	mov    WORD PTR [si+0x4],ax
     84d:	8d 55 3a             	lea    dx,[di+0x3a]
     850:	52                   	push   dx
     851:	31 d2                	xor    dx,dx
     853:	52                   	push   dx
     854:	50                   	push   ax
     855:	e8 2f 0f             	call   0x1787
     858:	83 c4 06             	add    sp,0x6
     85b:	96                   	xchg   si,ax
     85c:	89 ec                	mov    sp,bp
     85e:	5d                   	pop    bp
     85f:	5f                   	pop    di
     860:	5e                   	pop    si
     861:	c3                   	ret    
     862:	ff 36 50 10          	push   WORD PTR ds:0x1050
     866:	e8 2e ff             	call   0x797
     869:	83 c4 02             	add    sp,0x2
     86c:	c3                   	ret    
     86d:	56                   	push   si
     86e:	57                   	push   di
     86f:	55                   	push   bp
     870:	89 e5                	mov    bp,sp
     872:	8b 76 08             	mov    si,WORD PTR [bp+0x8]
     875:	83 7c 0c 00          	cmp    WORD PTR [si+0xc],0x0
     879:	75 63                	jne    0x8de
     87b:	c7 44 14 97 07       	mov    WORD PTR [si+0x14],0x797
     880:	c7 44 24 00 00       	mov    WORD PTR [si+0x24],0x0
     885:	c7 44 26 00 00       	mov    WORD PTR [si+0x26],0x0
     88a:	c7 44 28 00 00       	mov    WORD PTR [si+0x28],0x0
     88f:	3b 36 50 10          	cmp    si,WORD PTR ds:0x1050
     893:	75 05                	jne    0x89a
     895:	c7 44 0c 01 00       	mov    WORD PTR [si+0xc],0x1
     89a:	56                   	push   si
     89b:	e8 46 00             	call   0x8e4
     89e:	89 44 02             	mov    WORD PTR [si+0x2],ax
     8a1:	56                   	push   si
     8a2:	e8 3f 00             	call   0x8e4
     8a5:	89 44 04             	mov    WORD PTR [si+0x4],ax
     8a8:	56                   	push   si
     8a9:	e8 38 00             	call   0x8e4
     8ac:	89 44 06             	mov    WORD PTR [si+0x6],ax
     8af:	31 c0                	xor    ax,ax
     8b1:	50                   	push   ax
     8b2:	b8 04 00             	mov    ax,0x4
     8b5:	50                   	push   ax
     8b6:	ff 74 02             	push   WORD PTR [si+0x2]
     8b9:	e8 ef fe             	call   0x7ab
     8bc:	bf 01 00             	mov    di,0x1
     8bf:	57                   	push   di
     8c0:	b8 09 00             	mov    ax,0x9
     8c3:	50                   	push   ax
     8c4:	ff 74 04             	push   WORD PTR [si+0x4]
     8c7:	e8 e1 fe             	call   0x7ab
     8ca:	b8 02 00             	mov    ax,0x2
     8cd:	50                   	push   ax
     8ce:	b8 12 00             	mov    ax,0x12
     8d1:	50                   	push   ax
     8d2:	ff 74 06             	push   WORD PTR [si+0x6]
     8d5:	e8 d3 fe             	call   0x7ab
     8d8:	89 7c 0c             	mov    WORD PTR [si+0xc],di
     8db:	83 c4 18             	add    sp,0x18
     8de:	89 ec                	mov    sp,bp
     8e0:	5d                   	pop    bp
     8e1:	5f                   	pop    di
     8e2:	5e                   	pop    si
     8e3:	c3                   	ret    
     8e4:	56                   	push   si
     8e5:	57                   	push   di
     8e6:	55                   	push   bp
     8e7:	89 e5                	mov    bp,sp
     8e9:	8b 36 50 10          	mov    si,WORD PTR ds:0x1050
     8ed:	83 7c 0c 00          	cmp    WORD PTR [si+0xc],0x0
     8f1:	75 07                	jne    0x8fa
     8f3:	56                   	push   si
     8f4:	e8 76 ff             	call   0x86d
     8f7:	83 c4 02             	add    sp,0x2
     8fa:	8d 7c 24             	lea    di,[si+0x24]
     8fd:	8b 75 04             	mov    si,WORD PTR [di+0x4]
     900:	8b 45 02             	mov    ax,WORD PTR [di+0x2]
     903:	48                   	dec    ax
     904:	79 09                	jns    0x90f
     906:	83 3d 00             	cmp    WORD PTR [di],0x0
     909:	74 0f                	je     0x91a
     90b:	8b 3d                	mov    di,WORD PTR [di]
     90d:	eb ee                	jmp    0x8fd
     90f:	83 7c 06 00          	cmp    WORD PTR [si+0x6],0x0
     913:	74 27                	je     0x93c
     915:	83 c6 3a             	add    si,0x3a
     918:	eb e9                	jmp    0x903
     91a:	b8 04 00             	mov    ax,0x4
     91d:	50                   	push   ax
     91e:	ff 76 08             	push   WORD PTR [bp+0x8]
     921:	e8 f7 fe             	call   0x81b
     924:	89 05                	mov    WORD PTR [di],ax
     926:	83 c4 04             	add    sp,0x4
     929:	21 c0                	and    ax,ax
     92b:	75 de                	jne    0x90b
     92d:	8b 5e 08             	mov    bx,WORD PTR [bp+0x8]
     930:	c7 07 08 00          	mov    WORD PTR [bx],0x8
     934:	96                   	xchg   si,ax
     935:	96                   	xchg   si,ax
     936:	89 ec                	mov    sp,bp
     938:	5d                   	pop    bp
     939:	5f                   	pop    di
     93a:	5e                   	pop    si
     93b:	c3                   	ret    
     93c:	c7 44 08 ff ff       	mov    WORD PTR [si+0x8],0xffff
     941:	c7 44 06 01 00       	mov    WORD PTR [si+0x6],0x1
     946:	c7 44 38 00 00       	mov    WORD PTR [si+0x38],0x0
     94b:	c7 04 00 00          	mov    WORD PTR [si],0x0
     94f:	c7 44 04 00 00       	mov    WORD PTR [si+0x4],0x0
     954:	c7 44 02 00 00       	mov    WORD PTR [si+0x2],0x0
     959:	c7 44 0a 00 00       	mov    WORD PTR [si+0xa],0x0
     95e:	c7 44 0c 00 00       	mov    WORD PTR [si+0xc],0x0
     963:	c7 44 0e 00 00       	mov    WORD PTR [si+0xe],0x0
     968:	b8 06 00             	mov    ax,0x6
     96b:	50                   	push   ax
     96c:	31 ff                	xor    di,di
     96e:	57                   	push   di
     96f:	8d 44 32             	lea    ax,[si+0x32]
     972:	50                   	push   ax
     973:	e8 11 0e             	call   0x1787
     976:	89 7c 1c             	mov    WORD PTR [si+0x1c],di
     979:	89 7c 1e             	mov    WORD PTR [si+0x1e],di
     97c:	89 7c 28             	mov    WORD PTR [si+0x28],di
     97f:	89 7c 2a             	mov    WORD PTR [si+0x2a],di
     982:	83 c4 06             	add    sp,0x6
     985:	eb ae                	jmp    0x935
     987:	56                   	push   si
     988:	57                   	push   di
     989:	06                   	push   es
     98a:	55                   	push   bp
     98b:	89 e5                	mov    bp,sp
     98d:	1e                   	push   ds
     98e:	8e 46 0a             	mov    es,WORD PTR [bp+0xa]
     991:	8d 46 fe             	lea    ax,[bp-0x2]
     994:	50                   	push   ax
     995:	ff 76 0e             	push   WORD PTR [bp+0xe]
     998:	06                   	push   es
     999:	e8 9b 65             	call   0x6f37
     99c:	83 c4 06             	add    sp,0x6
     99f:	21 c0                	and    ax,ax
     9a1:	75 0a                	jne    0x9ad
     9a3:	31 ff                	xor    di,di
     9a5:	97                   	xchg   di,ax
     9a6:	89 ec                	mov    sp,bp
     9a8:	5d                   	pop    bp
     9a9:	07                   	pop    es
     9aa:	5f                   	pop    di
     9ab:	5e                   	pop    si
     9ac:	c3                   	ret    
     9ad:	96                   	xchg   si,ax
     9ae:	06                   	push   es
     9af:	e8 32 ff             	call   0x8e4
     9b2:	89 c7                	mov    di,ax
     9b4:	83 c4 02             	add    sp,0x2
     9b7:	21 c0                	and    ax,ax
     9b9:	74 e8                	je     0x9a3
     9bb:	b8 b6 01             	mov    ax,0x1b6
     9be:	50                   	push   ax
     9bf:	ff 76 fe             	push   WORD PTR [bp-0x2]
     9c2:	ff 76 0c             	push   WORD PTR [bp+0xc]
     9c5:	06                   	push   es
     9c6:	e8 63 10             	call   0x1a2c
     9c9:	83 c4 08             	add    sp,0x8
     9cc:	21 c0                	and    ax,ax
     9ce:	7d 07                	jge    0x9d7
     9d0:	c7 45 06 00 00       	mov    WORD PTR [di+0x6],0x0
     9d5:	eb cc                	jmp    0x9a3
     9d7:	89 45 08             	mov    WORD PTR [di+0x8],ax
     9da:	89 75 06             	mov    WORD PTR [di+0x6],si
     9dd:	89 7d 12             	mov    WORD PTR [di+0x12],di
     9e0:	c7 45 14 51 22       	mov    WORD PTR [di+0x14],0x2251
     9e5:	c7 45 16 8f 22       	mov    WORD PTR [di+0x16],0x228f
     9ea:	c7 45 18 d9 22       	mov    WORD PTR [di+0x18],0x22d9
     9ef:	c7 45 1a 1b 23       	mov    WORD PTR [di+0x1a],0x231b
     9f4:	f7 c6 00 01          	test   si,0x100
     9f8:	74 10                	je     0xa0a
     9fa:	b8 02 00             	mov    ax,0x2
     9fd:	50                   	push   ax
     9fe:	31 c0                	xor    ax,ax
     a00:	50                   	push   ax
     a01:	50                   	push   ax
     a02:	57                   	push   di
     a03:	06                   	push   es
     a04:	e8 10 03             	call   0xd17
     a07:	83 c4 0a             	add    sp,0xa
     a0a:	ff 75 08             	push   WORD PTR [di+0x8]
     a0d:	e8 1b 19             	call   0x232b
     a10:	83 c4 02             	add    sp,0x2
     a13:	21 c0                	and    ax,ax
     a15:	74 8e                	je     0x9a5
     a17:	80 4d 07 40          	or     BYTE PTR [di+0x7],0x40
     a1b:	eb 88                	jmp    0x9a5
     a1d:	55                   	push   bp
     a1e:	89 e5                	mov    bp,sp
     a20:	ff 76 06             	push   WORD PTR [bp+0x6]
     a23:	ff 76 04             	push   WORD PTR [bp+0x4]
     a26:	ff 36 a2 18          	push   WORD PTR ds:0x18a2
     a2a:	e8 5a ff             	call   0x987
     a2d:	83 c4 06             	add    sp,0x6
     a30:	89 ec                	mov    sp,bp
     a32:	5d                   	pop    bp
     a33:	c3                   	ret    
     a34:	55                   	push   bp
     a35:	89 e5                	mov    bp,sp
     a37:	8d 46 0a             	lea    ax,[bp+0xa]
     a3a:	50                   	push   ax
     a3b:	ff 76 08             	push   WORD PTR [bp+0x8]
     a3e:	ff 76 06             	push   WORD PTR [bp+0x6]
     a41:	ff 76 04             	push   WORD PTR [bp+0x4]
     a44:	e8 ec 3e             	call   0x4933
     a47:	83 c4 08             	add    sp,0x8
     a4a:	89 ec                	mov    sp,bp
     a4c:	5d                   	pop    bp
     a4d:	c3                   	ret    
     a4e:	55                   	push   bp
     a4f:	89 e5                	mov    bp,sp
     a51:	8d 46 08             	lea    ax,[bp+0x8]
     a54:	50                   	push   ax
     a55:	ff 76 06             	push   WORD PTR [bp+0x6]
     a58:	ff 76 04             	push   WORD PTR [bp+0x4]
     a5b:	ff 36 a2 18          	push   WORD PTR ds:0x18a2
     a5f:	e8 d1 3e             	call   0x4933
     a62:	83 c4 08             	add    sp,0x8
     a65:	89 ec                	mov    sp,bp
     a67:	5d                   	pop    bp
     a68:	c3                   	ret    
     a69:	56                   	push   si
     a6a:	57                   	push   di
     a6b:	06                   	push   es
     a6c:	55                   	push   bp
     a6d:	89 e5                	mov    bp,sp
     a6f:	c4 76 0a             	les    si,DWORD PTR [bp+0xa]
     a72:	8b 7e 0e             	mov    di,WORD PTR [bp+0xe]
     a75:	21 f6                	and    si,si
     a77:	74 0d                	je     0xa86
     a79:	83 7c 0c 00          	cmp    WORD PTR [si+0xc],0x0
     a7d:	75 07                	jne    0xa86
     a7f:	56                   	push   si
     a80:	e8 ea fd             	call   0x86d
     a83:	83 c4 02             	add    sp,0x2
     a86:	81 ff 3e 10          	cmp    di,0x103e
     a8a:	75 15                	jne    0xaa1
     a8c:	8b 7c 02             	mov    di,WORD PTR [si+0x2]
     a8f:	89 7e 0e             	mov    WORD PTR [bp+0xe],di
     a92:	8c 46 0c             	mov    WORD PTR [bp+0xc],es
     a95:	89 76 0a             	mov    WORD PTR [bp+0xa],si
     a98:	89 ec                	mov    sp,bp
     a9a:	5d                   	pop    bp
     a9b:	07                   	pop    es
     a9c:	5f                   	pop    di
     a9d:	5e                   	pop    si
     a9e:	e9 2a 10             	jmp    0x1acb
     aa1:	81 ff 2c 10          	cmp    di,0x102c
     aa5:	75 05                	jne    0xaac
     aa7:	8b 7c 04             	mov    di,WORD PTR [si+0x4]
     aaa:	eb e3                	jmp    0xa8f
     aac:	81 ff 1a 10          	cmp    di,0x101a
     ab0:	75 dd                	jne    0xa8f
     ab2:	8b 7c 06             	mov    di,WORD PTR [si+0x6]
     ab5:	eb d8                	jmp    0xa8f
     ab7:	55                   	push   bp
     ab8:	89 e5                	mov    bp,sp
     aba:	ff 76 06             	push   WORD PTR [bp+0x6]
     abd:	ff 76 04             	push   WORD PTR [bp+0x4]
     ac0:	ff 36 a2 18          	push   WORD PTR ds:0x18a2
     ac4:	e8 a2 ff             	call   0xa69
     ac7:	83 c4 06             	add    sp,0x6
     aca:	89 ec                	mov    sp,bp
     acc:	5d                   	pop    bp
     acd:	c3                   	ret    
     ace:	56                   	push   si
     acf:	57                   	push   di
     ad0:	55                   	push   bp
     ad1:	89 e5                	mov    bp,sp
     ad3:	83 ec 0a             	sub    sp,0xa
     ad6:	8b 76 08             	mov    si,WORD PTR [bp+0x8]
     ad9:	8b 46 0a             	mov    ax,WORD PTR [bp+0xa]
     adc:	8b 7e 0c             	mov    di,WORD PTR [bp+0xc]
     adf:	89 46 f6             	mov    WORD PTR [bp-0xa],ax
     ae2:	50                   	push   ax
     ae3:	e8 ab 18             	call   0x2391
     ae6:	89 46 fe             	mov    WORD PTR [bp-0x2],ax
     ae9:	89 46 f8             	mov    WORD PTR [bp-0x8],ax
     aec:	8d 46 f6             	lea    ax,[bp-0xa]
     aef:	89 46 fa             	mov    WORD PTR [bp-0x6],ax
     af2:	c7 46 fc 01 00       	mov    WORD PTR [bp-0x4],0x1
     af7:	83 c4 02             	add    sp,0x2
     afa:	21 f6                	and    si,si
     afc:	74 0d                	je     0xb0b
     afe:	83 7c 0c 00          	cmp    WORD PTR [si+0xc],0x0
     b02:	75 07                	jne    0xb0b
     b04:	56                   	push   si
     b05:	e8 65 fd             	call   0x86d
     b08:	83 c4 02             	add    sp,0x2
     b0b:	81 ff 3e 10          	cmp    di,0x103e
     b0f:	75 15                	jne    0xb26
     b11:	8b 7c 02             	mov    di,WORD PTR [si+0x2]
     b14:	8d 46 fa             	lea    ax,[bp-0x6]
     b17:	50                   	push   ax
     b18:	57                   	push   di
     b19:	56                   	push   si
     b1a:	e8 28 05             	call   0x1045
     b1d:	83 c4 06             	add    sp,0x6
     b20:	89 ec                	mov    sp,bp
     b22:	5d                   	pop    bp
     b23:	5f                   	pop    di
     b24:	5e                   	pop    si
     b25:	c3                   	ret    
     b26:	81 ff 2c 10          	cmp    di,0x102c
     b2a:	75 05                	jne    0xb31
     b2c:	8b 7c 04             	mov    di,WORD PTR [si+0x4]
     b2f:	eb e3                	jmp    0xb14
     b31:	81 ff 1a 10          	cmp    di,0x101a
     b35:	75 dd                	jne    0xb14
     b37:	8b 7c 06             	mov    di,WORD PTR [si+0x6]
     b3a:	eb d8                	jmp    0xb14
     b3c:	55                   	push   bp
     b3d:	89 e5                	mov    bp,sp
     b3f:	ff 76 06             	push   WORD PTR [bp+0x6]
     b42:	ff 76 04             	push   WORD PTR [bp+0x4]
     b45:	ff 36 a2 18          	push   WORD PTR ds:0x18a2
     b49:	e8 82 ff             	call   0xace
     b4c:	83 c4 06             	add    sp,0x6
     b4f:	89 ec                	mov    sp,bp
     b51:	5d                   	pop    bp
     b52:	c3                   	ret    
     b53:	56                   	push   si
     b54:	57                   	push   di
     b55:	06                   	push   es
     b56:	55                   	push   bp
     b57:	89 e5                	mov    bp,sp
     b59:	1e                   	push   ds
     b5a:	1e                   	push   ds
     b5b:	8e 46 0a             	mov    es,WORD PTR [bp+0xa]
     b5e:	8b 7e 0c             	mov    di,WORD PTR [bp+0xc]
     b61:	8b 76 0e             	mov    si,WORD PTR [bp+0xe]
     b64:	89 f0                	mov    ax,si
     b66:	03 46 10             	add    ax,WORD PTR [bp+0x10]
     b69:	89 46 fc             	mov    WORD PTR [bp-0x4],ax
     b6c:	89 76 fe             	mov    WORD PTR [bp-0x2],si
     b6f:	91                   	xchg   cx,ax
     b70:	49                   	dec    cx
     b71:	8b 46 fe             	mov    ax,WORD PTR [bp-0x2]
     b74:	39 ce                	cmp    si,cx
     b76:	72 52                	jb     0xbca
     b78:	39 76 fc             	cmp    WORD PTR [bp-0x4],si
     b7b:	76 28                	jbe    0xba5
     b7d:	80 3c 0d             	cmp    BYTE PTR [si],0xd
     b80:	75 1a                	jne    0xb9c
     b82:	8b 45 02             	mov    ax,WORD PTR [di+0x2]
     b85:	48                   	dec    ax
     b86:	89 45 02             	mov    WORD PTR [di+0x2],ax
     b89:	21 c0                	and    ax,ax
     b8b:	7d 59                	jge    0xbe6
     b8d:	57                   	push   di
     b8e:	06                   	push   es
     b8f:	e8 72 13             	call   0x1f04
     b92:	83 c4 04             	add    sp,0x4
     b95:	83 f8 0a             	cmp    ax,0xa
     b98:	75 59                	jne    0xbf3
     b9a:	88 04                	mov    BYTE PTR [si],al
     b9c:	8a 04                	mov    al,BYTE PTR [si]
     b9e:	8b 5e fe             	mov    bx,WORD PTR [bp-0x2]
     ba1:	88 07                	mov    BYTE PTR [bx],al
     ba3:	93                   	xchg   bx,ax
     ba4:	40                   	inc    ax
     ba5:	96                   	xchg   si,ax
     ba6:	39 76 fc             	cmp    WORD PTR [bp-0x4],si
     ba9:	76 15                	jbe    0xbc0
     bab:	57                   	push   di
     bac:	06                   	push   es
     bad:	e8 f7 09             	call   0x15a7
     bb0:	83 c4 04             	add    sp,0x4
     bb3:	83 f8 ff             	cmp    ax,0xffff
     bb6:	75 45                	jne    0xbfd
     bb8:	8b 46 fc             	mov    ax,WORD PTR [bp-0x4]
     bbb:	29 f0                	sub    ax,si
     bbd:	29 46 10             	sub    WORD PTR [bp+0x10],ax
     bc0:	8b 46 10             	mov    ax,WORD PTR [bp+0x10]
     bc3:	89 ec                	mov    sp,bp
     bc5:	5d                   	pop    bp
     bc6:	07                   	pop    es
     bc7:	5f                   	pop    di
     bc8:	5e                   	pop    si
     bc9:	c3                   	ret    
     bca:	80 3c 0d             	cmp    BYTE PTR [si],0xd
     bcd:	75 0a                	jne    0xbd9
     bcf:	80 7c 01 0a          	cmp    BYTE PTR [si+0x1],0xa
     bd3:	9f                   	lahf   
     bd4:	d0 e4                	shl    ah,1
     bd6:	99                   	cwd    
     bd7:	29 d6                	sub    si,dx
     bd9:	8a 04                	mov    al,BYTE PTR [si]
     bdb:	8b 5e fe             	mov    bx,WORD PTR [bp-0x2]
     bde:	88 07                	mov    BYTE PTR [bx],al
     be0:	46                   	inc    si
     be1:	ff 46 fe             	inc    WORD PTR [bp-0x2]
     be4:	eb 8b                	jmp    0xb71
     be6:	8b 1d                	mov    bx,WORD PTR [di]
     be8:	8d 47 01             	lea    ax,[bx+0x1]
     beb:	89 05                	mov    WORD PTR [di],ax
     bed:	8a 07                	mov    al,BYTE PTR [bx]
     bef:	30 e4                	xor    ah,ah
     bf1:	eb a2                	jmp    0xb95
     bf3:	57                   	push   di
     bf4:	50                   	push   ax
     bf5:	e8 24 3d             	call   0x491c
     bf8:	83 c4 04             	add    sp,0x4
     bfb:	eb 9f                	jmp    0xb9c
     bfd:	88 04                	mov    BYTE PTR [si],al
     bff:	46                   	inc    si
     c00:	eb a4                	jmp    0xba6
     c02:	56                   	push   si
     c03:	57                   	push   di
     c04:	06                   	push   es
     c05:	55                   	push   bp
     c06:	89 e5                	mov    bp,sp
     c08:	83 ec 08             	sub    sp,0x8
     c0b:	c4 76 0a             	les    si,DWORD PTR [bp+0xa]
     c0e:	8b 7e 12             	mov    di,WORD PTR [bp+0x12]
     c11:	8b 46 10             	mov    ax,WORD PTR [bp+0x10]
     c14:	f7 66 0e             	mul    WORD PTR [bp+0xe]
     c17:	89 46 fe             	mov    WORD PTR [bp-0x2],ax
     c1a:	21 c0                	and    ax,ax
     c1c:	75 03                	jne    0xc21
     c1e:	e9 ce 00             	jmp    0xcef
     c21:	21 f6                	and    si,si
     c23:	74 0d                	je     0xc32
     c25:	83 7c 0c 00          	cmp    WORD PTR [si+0xc],0x0
     c29:	75 07                	jne    0xc32
     c2b:	56                   	push   si
     c2c:	e8 3e fc             	call   0x86d
     c2f:	83 c4 02             	add    sp,0x2
     c32:	81 ff 3e 10          	cmp    di,0x103e
     c36:	75 4b                	jne    0xc83
     c38:	8b 7c 02             	mov    di,WORD PTR [si+0x2]
     c3b:	83 7d 02 00          	cmp    WORD PTR [di+0x2],0x0
     c3f:	7d 05                	jge    0xc46
     c41:	c7 45 02 00 00       	mov    WORD PTR [di+0x2],0x0
     c46:	8c c3                	mov    bx,es
     c48:	8b 56 fe             	mov    dx,WORD PTR [bp-0x2]
     c4b:	8b 4d 02             	mov    cx,WORD PTR [di+0x2]
     c4e:	39 ca                	cmp    dx,cx
     c50:	77 47                	ja     0xc99
     c52:	52                   	push   dx
     c53:	89 56 fc             	mov    WORD PTR [bp-0x4],dx
     c56:	ff 35                	push   WORD PTR [di]
     c58:	53                   	push   bx
     c59:	e8 b7 0a             	call   0x1713
     c5c:	8b 56 fc             	mov    dx,WORD PTR [bp-0x4]
     c5f:	29 55 02             	sub    WORD PTR [di+0x2],dx
     c62:	01 15                	add    WORD PTR [di],dx
     c64:	83 c4 06             	add    sp,0x6
     c67:	8b 46 10             	mov    ax,WORD PTR [bp+0x10]
     c6a:	f6 45 07 40          	test   BYTE PTR [di+0x7],0x40
     c6e:	74 7f                	je     0xcef
     c70:	ff 76 fe             	push   WORD PTR [bp-0x2]
     c73:	06                   	push   es
     c74:	57                   	push   di
     c75:	56                   	push   si
     c76:	e8 da fe             	call   0xb53
     c79:	31 d2                	xor    dx,dx
     c7b:	f7 76 0e             	div    WORD PTR [bp+0xe]
     c7e:	83 c4 08             	add    sp,0x8
     c81:	eb 6c                	jmp    0xcef
     c83:	81 ff 2c 10          	cmp    di,0x102c
     c87:	75 05                	jne    0xc8e
     c89:	8b 7c 04             	mov    di,WORD PTR [si+0x4]
     c8c:	eb ad                	jmp    0xc3b
     c8e:	81 ff 1a 10          	cmp    di,0x101a
     c92:	75 a7                	jne    0xc3b
     c94:	8b 7c 06             	mov    di,WORD PTR [si+0x6]
     c97:	eb a2                	jmp    0xc3b
     c99:	89 56 f8             	mov    WORD PTR [bp-0x8],dx
     c9c:	51                   	push   cx
     c9d:	89 4e fa             	mov    WORD PTR [bp-0x6],cx
     ca0:	ff 35                	push   WORD PTR [di]
     ca2:	53                   	push   bx
     ca3:	89 5e fc             	mov    WORD PTR [bp-0x4],bx
     ca6:	e8 6a 0a             	call   0x1713
     ca9:	8b 4e fa             	mov    cx,WORD PTR [bp-0x6]
     cac:	01 0d                	add    WORD PTR [di],cx
     cae:	8b 5e fc             	mov    bx,WORD PTR [bp-0x4]
     cb1:	01 cb                	add    bx,cx
     cb3:	89 5e fa             	mov    WORD PTR [bp-0x6],bx
     cb6:	8b 56 f8             	mov    dx,WORD PTR [bp-0x8]
     cb9:	29 ca                	sub    dx,cx
     cbb:	89 56 fc             	mov    WORD PTR [bp-0x4],dx
     cbe:	57                   	push   di
     cbf:	56                   	push   si
     cc0:	e8 dc 10             	call   0x1d9f
     cc3:	83 c4 0a             	add    sp,0xa
     cc6:	21 c0                	and    ax,ax
     cc8:	8b 56 fc             	mov    dx,WORD PTR [bp-0x4]
     ccb:	8b 5e fa             	mov    bx,WORD PTR [bp-0x6]
     cce:	75 03                	jne    0xcd3
     cd0:	e9 78 ff             	jmp    0xc4b
     cd3:	8b 46 fe             	mov    ax,WORD PTR [bp-0x2]
     cd6:	f6 45 07 40          	test   BYTE PTR [di+0x7],0x40
     cda:	74 1a                	je     0xcf6
     cdc:	29 d0                	sub    ax,dx
     cde:	74 0a                	je     0xcea
     ce0:	50                   	push   ax
     ce1:	06                   	push   es
     ce2:	57                   	push   di
     ce3:	56                   	push   si
     ce4:	e8 6c fe             	call   0xb53
     ce7:	83 c4 08             	add    sp,0x8
     cea:	31 d2                	xor    dx,dx
     cec:	f7 76 0e             	div    WORD PTR [bp+0xe]
     cef:	89 ec                	mov    sp,bp
     cf1:	5d                   	pop    bp
     cf2:	07                   	pop    es
     cf3:	5f                   	pop    di
     cf4:	5e                   	pop    si
     cf5:	c3                   	ret    
     cf6:	29 d0                	sub    ax,dx
     cf8:	eb f0                	jmp    0xcea
     cfa:	55                   	push   bp
     cfb:	89 e5                	mov    bp,sp
     cfd:	ff 76 0a             	push   WORD PTR [bp+0xa]
     d00:	ff 76 08             	push   WORD PTR [bp+0x8]
     d03:	ff 76 06             	push   WORD PTR [bp+0x6]
     d06:	ff 76 04             	push   WORD PTR [bp+0x4]
     d09:	ff 36 a2 18          	push   WORD PTR ds:0x18a2
     d0d:	e8 f2 fe             	call   0xc02
     d10:	83 c4 0a             	add    sp,0xa
     d13:	89 ec                	mov    sp,bp
     d15:	5d                   	pop    bp
     d16:	c3                   	ret    
     d17:	e9 1d 00             	jmp    0xd37
     d1a:	55                   	push   bp
     d1b:	89 e5                	mov    bp,sp
     d1d:	ff 76 0a             	push   WORD PTR [bp+0xa]
     d20:	ff 76 08             	push   WORD PTR [bp+0x8]
     d23:	ff 76 06             	push   WORD PTR [bp+0x6]
     d26:	ff 76 04             	push   WORD PTR [bp+0x4]
     d29:	ff 36 a2 18          	push   WORD PTR ds:0x18a2
     d2d:	e8 07 00             	call   0xd37
     d30:	83 c4 0a             	add    sp,0xa
     d33:	89 ec                	mov    sp,bp
     d35:	5d                   	pop    bp
     d36:	c3                   	ret    
     d37:	56                   	push   si
     d38:	57                   	push   di
     d39:	06                   	push   es
     d3a:	55                   	push   bp
     d3b:	89 e5                	mov    bp,sp
     d3d:	83 ec 08             	sub    sp,0x8
     d40:	8b 7e 0a             	mov    di,WORD PTR [bp+0xa]
     d43:	8b 76 0c             	mov    si,WORD PTR [bp+0xc]
     d46:	c4 46 0e             	les    ax,DWORD PTR [bp+0xe]
     d49:	89 46 fc             	mov    WORD PTR [bp-0x4],ax
     d4c:	8c 46 fa             	mov    WORD PTR [bp-0x6],es
     d4f:	21 ff                	and    di,di
     d51:	74 0d                	je     0xd60
     d53:	83 7d 0c 00          	cmp    WORD PTR [di+0xc],0x0
     d57:	75 07                	jne    0xd60
     d59:	57                   	push   di
     d5a:	e8 10 fb             	call   0x86d
     d5d:	83 c4 02             	add    sp,0x2
     d60:	81 fe 3e 10          	cmp    si,0x103e
     d64:	75 32                	jne    0xd98
     d66:	8b 75 02             	mov    si,WORD PTR [di+0x2]
     d69:	8b 44 06             	mov    ax,WORD PTR [si+0x6]
     d6c:	25 08 01             	and    ax,0x108
     d6f:	3d 08 01             	cmp    ax,0x108
     d72:	75 08                	jne    0xd7c
     d74:	56                   	push   si
     d75:	57                   	push   di
     d76:	e8 2f f7             	call   0x4a8
     d79:	83 c4 04             	add    sp,0x4
     d7c:	8b 44 18             	mov    ax,WORD PTR [si+0x18]
     d7f:	89 46 fe             	mov    WORD PTR [bp-0x2],ax
     d82:	21 c0                	and    ax,ax
     d84:	75 28                	jne    0xdae
     d86:	c7 05 15 01          	mov    WORD PTR [di],0x115
     d8a:	b8 ff ff             	mov    ax,0xffff
     d8d:	8e c0                	mov    es,ax
     d8f:	8c c0                	mov    ax,es
     d91:	89 ec                	mov    sp,bp
     d93:	5d                   	pop    bp
     d94:	07                   	pop    es
     d95:	5f                   	pop    di
     d96:	5e                   	pop    si
     d97:	c3                   	ret    
     d98:	81 fe 2c 10          	cmp    si,0x102c
     d9c:	75 05                	jne    0xda3
     d9e:	8b 75 04             	mov    si,WORD PTR [di+0x4]
     da1:	eb c6                	jmp    0xd69
     da3:	81 fe 1a 10          	cmp    si,0x101a
     da7:	75 c0                	jne    0xd69
     da9:	8b 75 06             	mov    si,WORD PTR [di+0x6]
     dac:	eb bb                	jmp    0xd69
     dae:	83 7e 12 01          	cmp    WORD PTR [bp+0x12],0x1
     db2:	75 03                	jne    0xdb7
     db4:	e9 86 00             	jmp    0xe3d
     db7:	83 7e 12 02          	cmp    WORD PTR [bp+0x12],0x2
     dbb:	74 09                	je     0xdc6
     dbd:	83 7e 12 00          	cmp    WORD PTR [bp+0x12],0x0
     dc1:	74 03                	je     0xdc6
     dc3:	e9 f6 00             	jmp    0xebc
     dc6:	83 7c 0a 00          	cmp    WORD PTR [si+0xa],0x0
     dca:	75 08                	jne    0xdd4
     dcc:	56                   	push   si
     dcd:	57                   	push   di
     dce:	e8 99 08             	call   0x166a
     dd1:	83 c4 04             	add    sp,0x4
     dd4:	56                   	push   si
     dd5:	57                   	push   di
     dd6:	e8 cf f6             	call   0x4a8
     dd9:	8e c0                	mov    es,ax
     ddb:	83 c4 04             	add    sp,0x4
     dde:	21 c0                	and    ax,ax
     de0:	75 a8                	jne    0xd8a
     de2:	ff 76 12             	push   WORD PTR [bp+0x12]
     de5:	ff 76 fa             	push   WORD PTR [bp-0x6]
     de8:	ff 76 fc             	push   WORD PTR [bp-0x4]
     deb:	ff 74 12             	push   WORD PTR [si+0x12]
     dee:	57                   	push   di
     def:	ff 56 fe             	call   WORD PTR [bp-0x2]
     df2:	83 c4 0a             	add    sp,0xa
     df5:	83 f8 ff             	cmp    ax,0xffff
     df8:	75 05                	jne    0xdff
     dfa:	83 fa ff             	cmp    dx,0xffff
     dfd:	74 8b                	je     0xd8a
     dff:	8b 44 1c             	mov    ax,WORD PTR [si+0x1c]
     e02:	21 c0                	and    ax,ax
     e04:	74 14                	je     0xe1a
     e06:	8d 54 24             	lea    dx,[si+0x24]
     e09:	39 d0                	cmp    ax,dx
     e0b:	74 08                	je     0xe15
     e0d:	50                   	push   ax
     e0e:	57                   	push   di
     e0f:	e8 97 09             	call   0x17a9
     e12:	83 c4 04             	add    sp,0x4
     e15:	c7 44 1c 00 00       	mov    WORD PTR [si+0x1c],0x0
     e1a:	8b 44 0a             	mov    ax,WORD PTR [si+0xa]
     e1d:	89 04                	mov    WORD PTR [si],ax
     e1f:	c7 44 02 00 00       	mov    WORD PTR [si+0x2],0x0
     e24:	81 64 06 df f7       	and    WORD PTR [si+0x6],0xf7df
     e29:	b8 06 00             	mov    ax,0x6
     e2c:	50                   	push   ax
     e2d:	31 c0                	xor    ax,ax
     e2f:	50                   	push   ax
     e30:	83 c6 32             	add    si,0x32
     e33:	56                   	push   si
     e34:	e8 50 09             	call   0x1787
     e37:	83 c4 06             	add    sp,0x6
     e3a:	e9 52 ff             	jmp    0xd8f
     e3d:	56                   	push   si
     e3e:	57                   	push   di
     e3f:	e8 66 f6             	call   0x4a8
     e42:	83 c4 04             	add    sp,0x4
     e45:	8b 44 06             	mov    ax,WORD PTR [si+0x6]
     e48:	25 00 10             	and    ax,0x1000
     e4b:	74 37                	je     0xe84
     e4d:	8b 4c 2e             	mov    cx,WORD PTR [si+0x2e]
     e50:	8b 5c 30             	mov    bx,WORD PTR [si+0x30]
     e53:	8b 44 06             	mov    ax,WORD PTR [si+0x6]
     e56:	a8 04                	test   al,0x4
     e58:	74 4a                	je     0xea4
     e5a:	8b 44 02             	mov    ax,WORD PTR [si+0x2]
     e5d:	89 46 f8             	mov    WORD PTR [bp-0x8],ax
     e60:	99                   	cwd    
     e61:	29 c1                	sub    cx,ax
     e63:	19 d3                	sbb    bx,dx
     e65:	83 7c 1c 00          	cmp    WORD PTR [si+0x1c],0x0
     e69:	74 0b                	je     0xe76
     e6b:	8b 44 22             	mov    ax,WORD PTR [si+0x22]
     e6e:	89 46 f8             	mov    WORD PTR [bp-0x8],ax
     e71:	99                   	cwd    
     e72:	29 c1                	sub    cx,ax
     e74:	19 d3                	sbb    bx,dx
     e76:	01 4e fc             	add    WORD PTR [bp-0x4],cx
     e79:	11 5e fa             	adc    WORD PTR [bp-0x6],bx
     e7c:	c7 46 12 00 00       	mov    WORD PTR [bp+0x12],0x0
     e81:	e9 42 ff             	jmp    0xdc6
     e84:	ff 76 12             	push   WORD PTR [bp+0x12]
     e87:	50                   	push   ax
     e88:	50                   	push   ax
     e89:	ff 74 12             	push   WORD PTR [si+0x12]
     e8c:	57                   	push   di
     e8d:	ff 56 fe             	call   WORD PTR [bp-0x2]
     e90:	89 c1                	mov    cx,ax
     e92:	89 d3                	mov    bx,dx
     e94:	83 c4 0a             	add    sp,0xa
     e97:	83 f8 ff             	cmp    ax,0xffff
     e9a:	75 b7                	jne    0xe53
     e9c:	83 fa ff             	cmp    dx,0xffff
     e9f:	75 b2                	jne    0xe53
     ea1:	e9 e6 fe             	jmp    0xd8a
     ea4:	a8 08                	test   al,0x8
     ea6:	74 ce                	je     0xe76
     ea8:	8b 14                	mov    dx,WORD PTR [si]
     eaa:	21 d2                	and    dx,dx
     eac:	74 c8                	je     0xe76
     eae:	2b 54 0a             	sub    dx,WORD PTR [si+0xa]
     eb1:	89 56 f8             	mov    WORD PTR [bp-0x8],dx
     eb4:	92                   	xchg   dx,ax
     eb5:	99                   	cwd    
     eb6:	01 c1                	add    cx,ax
     eb8:	11 d3                	adc    bx,dx
     eba:	eb ba                	jmp    0xe76
     ebc:	c7 05 10 01          	mov    WORD PTR [di],0x110
     ec0:	e9 c7 fe             	jmp    0xd8a
     ec3:	55                   	push   bp
     ec4:	89 e5                	mov    bp,sp
     ec6:	ff 76 0a             	push   WORD PTR [bp+0xa]
     ec9:	ff 76 08             	push   WORD PTR [bp+0x8]
     ecc:	ff 76 06             	push   WORD PTR [bp+0x6]
     ecf:	ff 76 04             	push   WORD PTR [bp+0x4]
     ed2:	ff 36 a2 18          	push   WORD PTR ds:0x18a2
     ed6:	e8 5e fe             	call   0xd37
     ed9:	83 c4 0a             	add    sp,0xa
     edc:	89 ec                	mov    sp,bp
     ede:	5d                   	pop    bp
     edf:	c3                   	ret    
     ee0:	e9 14 00             	jmp    0xef7
     ee3:	55                   	push   bp
     ee4:	89 e5                	mov    bp,sp
     ee6:	ff 76 04             	push   WORD PTR [bp+0x4]
     ee9:	ff 36 a2 18          	push   WORD PTR ds:0x18a2
     eed:	e8 07 00             	call   0xef7
     ef0:	83 c4 04             	add    sp,0x4
     ef3:	89 ec                	mov    sp,bp
     ef5:	5d                   	pop    bp
     ef6:	c3                   	ret    
     ef7:	56                   	push   si
     ef8:	57                   	push   di
     ef9:	55                   	push   bp
     efa:	89 e5                	mov    bp,sp
     efc:	8b 7e 08             	mov    di,WORD PTR [bp+0x8]
     eff:	8b 76 0a             	mov    si,WORD PTR [bp+0xa]
     f02:	21 ff                	and    di,di
     f04:	74 0d                	je     0xf13
     f06:	83 7d 0c 00          	cmp    WORD PTR [di+0xc],0x0
     f0a:	75 07                	jne    0xf13
     f0c:	57                   	push   di
     f0d:	e8 5d f9             	call   0x86d
     f10:	83 c4 02             	add    sp,0x2
     f13:	81 fe 3e 10          	cmp    si,0x103e
     f17:	75 1b                	jne    0xf34
     f19:	8b 75 02             	mov    si,WORD PTR [di+0x2]
     f1c:	83 7c 18 00          	cmp    WORD PTR [si+0x18],0x0
     f20:	75 28                	jne    0xf4a
     f22:	c7 05 15 01          	mov    WORD PTR [di],0x115
     f26:	b9 ff ff             	mov    cx,0xffff
     f29:	89 cb                	mov    bx,cx
     f2b:	91                   	xchg   cx,ax
     f2c:	89 da                	mov    dx,bx
     f2e:	89 ec                	mov    sp,bp
     f30:	5d                   	pop    bp
     f31:	5f                   	pop    di
     f32:	5e                   	pop    si
     f33:	c3                   	ret    
     f34:	81 fe 2c 10          	cmp    si,0x102c
     f38:	75 05                	jne    0xf3f
     f3a:	8b 75 04             	mov    si,WORD PTR [di+0x4]
     f3d:	eb dd                	jmp    0xf1c
     f3f:	81 fe 1a 10          	cmp    si,0x101a
     f43:	75 d7                	jne    0xf1c
     f45:	8b 75 06             	mov    si,WORD PTR [di+0x6]
     f48:	eb d2                	jmp    0xf1c
     f4a:	f6 44 06 08          	test   BYTE PTR [si+0x6],0x8
     f4e:	74 08                	je     0xf58
     f50:	56                   	push   si
     f51:	57                   	push   di
     f52:	e8 53 f5             	call   0x4a8
     f55:	83 c4 04             	add    sp,0x4
     f58:	8b 44 06             	mov    ax,WORD PTR [si+0x6]
     f5b:	25 00 10             	and    ax,0x1000
     f5e:	74 25                	je     0xf85
     f60:	8b 4c 2e             	mov    cx,WORD PTR [si+0x2e]
     f63:	8b 5c 30             	mov    bx,WORD PTR [si+0x30]
     f66:	8b 44 06             	mov    ax,WORD PTR [si+0x6]
     f69:	a8 04                	test   al,0x4
     f6b:	74 38                	je     0xfa5
     f6d:	8b 44 02             	mov    ax,WORD PTR [si+0x2]
     f70:	99                   	cwd    
     f71:	29 c1                	sub    cx,ax
     f73:	19 d3                	sbb    bx,dx
     f75:	83 7c 1c 00          	cmp    WORD PTR [si+0x1c],0x0
     f79:	74 b0                	je     0xf2b
     f7b:	8b 44 22             	mov    ax,WORD PTR [si+0x22]
     f7e:	99                   	cwd    
     f7f:	29 c1                	sub    cx,ax
     f81:	19 d3                	sbb    bx,dx
     f83:	eb a6                	jmp    0xf2b
     f85:	ba 01 00             	mov    dx,0x1
     f88:	52                   	push   dx
     f89:	50                   	push   ax
     f8a:	50                   	push   ax
     f8b:	ff 74 12             	push   WORD PTR [si+0x12]
     f8e:	57                   	push   di
     f8f:	ff 54 18             	call   WORD PTR [si+0x18]
     f92:	89 c1                	mov    cx,ax
     f94:	89 d3                	mov    bx,dx
     f96:	83 c4 0a             	add    sp,0xa
     f99:	83 f8 ff             	cmp    ax,0xffff
     f9c:	75 c8                	jne    0xf66
     f9e:	83 fa ff             	cmp    dx,0xffff
     fa1:	75 c3                	jne    0xf66
     fa3:	eb 86                	jmp    0xf2b
     fa5:	a8 08                	test   al,0x8
     fa7:	74 82                	je     0xf2b
     fa9:	8b 14                	mov    dx,WORD PTR [si]
     fab:	21 d2                	and    dx,dx
     fad:	75 03                	jne    0xfb2
     faf:	e9 79 ff             	jmp    0xf2b
     fb2:	2b 54 0a             	sub    dx,WORD PTR [si+0xa]
     fb5:	89 d6                	mov    si,dx
     fb7:	92                   	xchg   dx,ax
     fb8:	99                   	cwd    
     fb9:	01 f1                	add    cx,si
     fbb:	11 d3                	adc    bx,dx
     fbd:	e9 6b ff             	jmp    0xf2b
     fc0:	55                   	push   bp
     fc1:	89 e5                	mov    bp,sp
     fc3:	ff 76 04             	push   WORD PTR [bp+0x4]
     fc6:	ff 36 a2 18          	push   WORD PTR ds:0x18a2
     fca:	e8 2a ff             	call   0xef7
     fcd:	83 c4 04             	add    sp,0x4
     fd0:	89 ec                	mov    sp,bp
     fd2:	5d                   	pop    bp
     fd3:	c3                   	ret    
     fd4:	56                   	push   si
     fd5:	06                   	push   es
     fd6:	55                   	push   bp
     fd7:	89 e5                	mov    bp,sp
     fd9:	1e                   	push   ds
     fda:	8e 46 08             	mov    es,WORD PTR [bp+0x8]
     fdd:	8b 56 0a             	mov    dx,WORD PTR [bp+0xa]
     fe0:	8b 76 0c             	mov    si,WORD PTR [bp+0xc]
     fe3:	8b 44 07             	mov    ax,WORD PTR [si+0x7]
     fe6:	b1 06                	mov    cl,0x6
     fe8:	d3 e8                	shr    ax,cl
     fea:	83 e0 01             	and    ax,0x1
     fed:	89 46 fe             	mov    WORD PTR [bp-0x2],ax
     ff0:	80 7e fe 00          	cmp    BYTE PTR [bp-0x2],0x0
     ff4:	74 17                	je     0x100d
     ff6:	83 fa 0a             	cmp    dx,0xa
     ff9:	75 12                	jne    0x100d
     ffb:	89 56 fe             	mov    WORD PTR [bp-0x2],dx
     ffe:	56                   	push   si
     fff:	b8 0d 00             	mov    ax,0xd
    1002:	50                   	push   ax
    1003:	06                   	push   es
    1004:	e8 cd ff             	call   0xfd4
    1007:	83 c4 06             	add    sp,0x6
    100a:	8b 56 fe             	mov    dx,WORD PTR [bp-0x2]
    100d:	8b 44 04             	mov    ax,WORD PTR [si+0x4]
    1010:	48                   	dec    ax
    1011:	89 44 04             	mov    WORD PTR [si+0x4],ax
    1014:	21 c0                	and    ax,ax
    1016:	7d 1b                	jge    0x1033
    1018:	3b 44 0e             	cmp    ax,WORD PTR [si+0xe]
    101b:	7c 05                	jl     0x1022
    101d:	80 fa 0a             	cmp    dl,0xa
    1020:	75 11                	jne    0x1033
    1022:	89 76 0c             	mov    WORD PTR [bp+0xc],si
    1025:	89 56 0a             	mov    WORD PTR [bp+0xa],dx
    1028:	8c 46 08             	mov    WORD PTR [bp+0x8],es
    102b:	89 ec                	mov    sp,bp
    102d:	5d                   	pop    bp
    102e:	07                   	pop    es
    102f:	5e                   	pop    si
    1030:	e9 ae 4c             	jmp    0x5ce1
    1033:	8b 1c                	mov    bx,WORD PTR [si]
    1035:	8d 47 01             	lea    ax,[bx+0x1]
    1038:	89 04                	mov    WORD PTR [si],ax
    103a:	88 17                	mov    BYTE PTR [bx],dl
    103c:	92                   	xchg   dx,ax
    103d:	30 e4                	xor    ah,ah
    103f:	89 ec                	mov    sp,bp
    1041:	5d                   	pop    bp
    1042:	07                   	pop    es
    1043:	5e                   	pop    si
    1044:	c3                   	ret    
    1045:	56                   	push   si
    1046:	57                   	push   di
    1047:	06                   	push   es
    1048:	55                   	push   bp
    1049:	89 e5                	mov    bp,sp
    104b:	83 ec 0e             	sub    sp,0xe
    104e:	8e 46 0a             	mov    es,WORD PTR [bp+0xa]
    1051:	8b 7e 0c             	mov    di,WORD PTR [bp+0xc]
    1054:	8b 5e 0e             	mov    bx,WORD PTR [bp+0xe]
    1057:	83 7f 04 00          	cmp    WORD PTR [bx+0x4],0x0
    105b:	75 09                	jne    0x1066
    105d:	31 c0                	xor    ax,ax
    105f:	89 ec                	mov    sp,bp
    1061:	5d                   	pop    bp
    1062:	07                   	pop    es
    1063:	5f                   	pop    di
    1064:	5e                   	pop    si
    1065:	c3                   	ret    
    1066:	f6 45 06 08          	test   BYTE PTR [di+0x6],0x8
    106a:	74 68                	je     0x10d4
    106c:	83 7d 0a 00          	cmp    WORD PTR [di+0xa],0x0
    1070:	74 62                	je     0x10d4
    1072:	8b 5e 0e             	mov    bx,WORD PTR [bp+0xe]
    1075:	8b 07                	mov    ax,WORD PTR [bx]
    1077:	89 46 fc             	mov    WORD PTR [bp-0x4],ax
    107a:	8b 45 06             	mov    ax,WORD PTR [di+0x6]
    107d:	89 c6                	mov    si,ax
    107f:	81 e6 00 40          	and    si,0x4000
    1083:	74 61                	je     0x10e6
    1085:	31 db                	xor    bx,bx
    1087:	89 de                	mov    si,bx
    1089:	21 f6                	and    si,si
    108b:	74 36                	je     0x10c3
    108d:	01 de                	add    si,bx
    108f:	89 76 fe             	mov    WORD PTR [bp-0x2],si
    1092:	57                   	push   di
    1093:	8a 07                	mov    al,BYTE PTR [bx]
    1095:	89 5e fa             	mov    WORD PTR [bp-0x6],bx
    1098:	98                   	cbw    
    1099:	50                   	push   ax
    109a:	ff 36 a2 18          	push   WORD PTR ds:0x18a2
    109e:	e8 33 ff             	call   0xfd4
    10a1:	83 c4 06             	add    sp,0x6
    10a4:	83 f8 ff             	cmp    ax,0xffff
    10a7:	74 37                	je     0x10e0
    10a9:	8b 5e fa             	mov    bx,WORD PTR [bp-0x6]
    10ac:	43                   	inc    bx
    10ad:	8b 76 0e             	mov    si,WORD PTR [bp+0xe]
    10b0:	8b 44 04             	mov    ax,WORD PTR [si+0x4]
    10b3:	89 46 fa             	mov    WORD PTR [bp-0x6],ax
    10b6:	48                   	dec    ax
    10b7:	89 44 04             	mov    WORD PTR [si+0x4],ax
    10ba:	39 5e fe             	cmp    WORD PTR [bp-0x2],bx
    10bd:	75 d3                	jne    0x1092
    10bf:	21 c0                	and    ax,ax
    10c1:	74 9a                	je     0x105d
    10c3:	8b 5e fc             	mov    bx,WORD PTR [bp-0x4]
    10c6:	8b 1f                	mov    bx,WORD PTR [bx]
    10c8:	8b 76 fc             	mov    si,WORD PTR [bp-0x4]
    10cb:	8b 74 02             	mov    si,WORD PTR [si+0x2]
    10ce:	83 46 fc 04          	add    WORD PTR [bp-0x4],0x4
    10d2:	eb b5                	jmp    0x1089
    10d4:	57                   	push   di
    10d5:	06                   	push   es
    10d6:	e8 09 4d             	call   0x5de2
    10d9:	83 c4 04             	add    sp,0x4
    10dc:	21 c0                	and    ax,ax
    10de:	74 92                	je     0x1072
    10e0:	b8 ff ff             	mov    ax,0xffff
    10e3:	e9 79 ff             	jmp    0x105f
    10e6:	89 c2                	mov    dx,ax
    10e8:	83 e2 02             	and    dx,0x2
    10eb:	89 56 f8             	mov    WORD PTR [bp-0x8],dx
    10ee:	74 51                	je     0x1141
    10f0:	89 f2                	mov    dx,si
    10f2:	21 d2                	and    dx,dx
    10f4:	74 3d                	je     0x1133
    10f6:	89 d0                	mov    ax,dx
    10f8:	81 fa 00 7c          	cmp    dx,0x7c00
    10fc:	76 03                	jbe    0x1101
    10fe:	b8 00 7c             	mov    ax,0x7c00
    1101:	89 56 fe             	mov    WORD PTR [bp-0x2],dx
    1104:	50                   	push   ax
    1105:	56                   	push   si
    1106:	ff 75 12             	push   WORD PTR [di+0x12]
    1109:	06                   	push   es
    110a:	ff 55 16             	call   WORD PTR [di+0x16]
    110d:	83 c4 08             	add    sp,0x8
    1110:	21 c0                	and    ax,ax
    1112:	7f 03                	jg     0x1117
    1114:	e9 68 01             	jmp    0x127f
    1117:	01 c6                	add    si,ax
    1119:	8b 56 fe             	mov    dx,WORD PTR [bp-0x2]
    111c:	29 c2                	sub    dx,ax
    111e:	8b 5e 0e             	mov    bx,WORD PTR [bp+0xe]
    1121:	8b 4f 04             	mov    cx,WORD PTR [bx+0x4]
    1124:	89 4e fe             	mov    WORD PTR [bp-0x2],cx
    1127:	29 c1                	sub    cx,ax
    1129:	89 4f 04             	mov    WORD PTR [bx+0x4],cx
    112c:	21 c9                	and    cx,cx
    112e:	75 c2                	jne    0x10f2
    1130:	e9 2a ff             	jmp    0x105d
    1133:	8b 5e fc             	mov    bx,WORD PTR [bp-0x4]
    1136:	8b 37                	mov    si,WORD PTR [bx]
    1138:	8b 57 02             	mov    dx,WORD PTR [bx+0x2]
    113b:	83 46 fc 04          	add    WORD PTR [bp-0x4],0x4
    113f:	eb b1                	jmp    0x10f2
    1141:	83 e0 01             	and    ax,0x1
    1144:	89 46 f6             	mov    WORD PTR [bp-0xa],ax
    1147:	75 03                	jne    0x114c
    1149:	e9 b3 00             	jmp    0x11ff
    114c:	8b 46 f8             	mov    ax,WORD PTR [bp-0x8]
    114f:	89 46 fa             	mov    WORD PTR [bp-0x6],ax
    1152:	89 46 fe             	mov    WORD PTR [bp-0x2],ax
    1155:	89 c6                	mov    si,ax
    1157:	21 f6                	and    si,si
    1159:	75 03                	jne    0x115e
    115b:	e9 3f 02             	jmp    0x139d
    115e:	21 c0                	and    ax,ax
    1160:	75 1f                	jne    0x1181
    1162:	56                   	push   si
    1163:	b8 0a 00             	mov    ax,0xa
    1166:	50                   	push   ax
    1167:	ff 76 fe             	push   WORD PTR [bp-0x2]
    116a:	e8 86 05             	call   0x16f3
    116d:	83 c4 06             	add    sp,0x6
    1170:	89 f2                	mov    dx,si
    1172:	42                   	inc    dx
    1173:	89 56 fa             	mov    WORD PTR [bp-0x6],dx
    1176:	21 c0                	and    ax,ax
    1178:	74 07                	je     0x1181
    117a:	40                   	inc    ax
    117b:	2b 46 fe             	sub    ax,WORD PTR [bp-0x2]
    117e:	89 46 fa             	mov    WORD PTR [bp-0x6],ax
    1181:	8b 4e fa             	mov    cx,WORD PTR [bp-0x6]
    1184:	39 f1                	cmp    cx,si
    1186:	76 02                	jbe    0x118a
    1188:	89 f1                	mov    cx,si
    118a:	8b 45 0c             	mov    ax,WORD PTR [di+0xc]
    118d:	89 c2                	mov    dx,ax
    118f:	03 55 04             	add    dx,WORD PTR [di+0x4]
    1192:	8b 1d                	mov    bx,WORD PTR [di]
    1194:	3b 5d 0a             	cmp    bx,WORD PTR [di+0xa]
    1197:	77 03                	ja     0x119c
    1199:	e9 16 02             	jmp    0x13b2
    119c:	39 d1                	cmp    cx,dx
    119e:	7f 03                	jg     0x11a3
    11a0:	e9 0f 02             	jmp    0x13b2
    11a3:	52                   	push   dx
    11a4:	89 56 f4             	mov    WORD PTR [bp-0xc],dx
    11a7:	ff 76 fe             	push   WORD PTR [bp-0x2]
    11aa:	53                   	push   bx
    11ab:	e8 85 05             	call   0x1733
    11ae:	8b 56 f4             	mov    dx,WORD PTR [bp-0xc]
    11b1:	01 15                	add    WORD PTR [di],dx
    11b3:	57                   	push   di
    11b4:	06                   	push   es
    11b5:	e8 f0 f2             	call   0x4a8
    11b8:	83 c4 0a             	add    sp,0xa
    11bb:	21 c0                	and    ax,ax
    11bd:	8b 56 f4             	mov    dx,WORD PTR [bp-0xc]
    11c0:	74 03                	je     0x11c5
    11c2:	e9 ba 00             	jmp    0x127f
    11c5:	8b 46 f6             	mov    ax,WORD PTR [bp-0xa]
    11c8:	29 56 fa             	sub    WORD PTR [bp-0x6],dx
    11cb:	75 15                	jne    0x11e2
    11cd:	89 56 f4             	mov    WORD PTR [bp-0xc],dx
    11d0:	57                   	push   di
    11d1:	06                   	push   es
    11d2:	e8 d3 f2             	call   0x4a8
    11d5:	83 c4 04             	add    sp,0x4
    11d8:	21 c0                	and    ax,ax
    11da:	8b 56 f4             	mov    dx,WORD PTR [bp-0xc]
    11dd:	74 03                	je     0x11e2
    11df:	e9 9d 00             	jmp    0x127f
    11e2:	01 56 fe             	add    WORD PTR [bp-0x2],dx
    11e5:	29 d6                	sub    si,dx
    11e7:	8b 5e 0e             	mov    bx,WORD PTR [bp+0xe]
    11ea:	8b 4f 04             	mov    cx,WORD PTR [bx+0x4]
    11ed:	89 4e f4             	mov    WORD PTR [bp-0xc],cx
    11f0:	29 d1                	sub    cx,dx
    11f2:	89 4f 04             	mov    WORD PTR [bx+0x4],cx
    11f5:	21 c9                	and    cx,cx
    11f7:	74 03                	je     0x11fc
    11f9:	e9 5b ff             	jmp    0x1157
    11fc:	e9 5e fe             	jmp    0x105d
    11ff:	8b 46 f6             	mov    ax,WORD PTR [bp-0xa]
    1202:	89 46 f8             	mov    WORD PTR [bp-0x8],ax
    1205:	89 46 fe             	mov    WORD PTR [bp-0x2],ax
    1208:	83 7e fe 00          	cmp    WORD PTR [bp-0x2],0x0
    120c:	74 78                	je     0x1286
    120e:	8b 75 04             	mov    si,WORD PTR [di+0x4]
    1211:	8b 45 06             	mov    ax,WORD PTR [di+0x6]
    1214:	89 46 f4             	mov    WORD PTR [bp-0xc],ax
    1217:	f6 c4 02             	test   ah,0x2
    121a:	75 03                	jne    0x121f
    121c:	e9 12 01             	jmp    0x1331
    121f:	39 76 fe             	cmp    WORD PTR [bp-0x2],si
    1222:	73 03                	jae    0x1227
    1224:	e9 a6 00             	jmp    0x12cd
    1227:	a9 80 04             	test   ax,0x480
    122a:	75 03                	jne    0x122f
    122c:	e9 9e 00             	jmp    0x12cd
    122f:	8b 45 0a             	mov    ax,WORD PTR [di+0xa]
    1232:	89 46 f2             	mov    WORD PTR [bp-0xe],ax
    1235:	8b 05                	mov    ax,WORD PTR [di]
    1237:	2b 46 f2             	sub    ax,WORD PTR [bp-0xe]
    123a:	89 46 f6             	mov    WORD PTR [bp-0xa],ax
    123d:	8b 55 0c             	mov    dx,WORD PTR [di+0xc]
    1240:	89 d0                	mov    ax,dx
    1242:	d1 e0                	shl    ax,1
    1244:	01 d0                	add    ax,dx
    1246:	b9 02 00             	mov    cx,0x2
    1249:	99                   	cwd    
    124a:	f7 f9                	idiv   cx
    124c:	89 46 fa             	mov    WORD PTR [bp-0x6],ax
    124f:	8b 5e f6             	mov    bx,WORD PTR [bp-0xa]
    1252:	8b 76 fe             	mov    si,WORD PTR [bp-0x2]
    1255:	8d 40 01             	lea    ax,[bx+si+0x1]
    1258:	3b 46 fa             	cmp    ax,WORD PTR [bp-0x6]
    125b:	76 03                	jbe    0x1260
    125d:	89 46 fa             	mov    WORD PTR [bp-0x6],ax
    1260:	f6 46 f5 04          	test   BYTE PTR [bp-0xb],0x4
    1264:	75 03                	jne    0x1269
    1266:	e9 9e 00             	jmp    0x1307
    1269:	ff 76 fa             	push   WORD PTR [bp-0x6]
    126c:	06                   	push   es
    126d:	e8 04 06             	call   0x1874
    1270:	89 c6                	mov    si,ax
    1272:	83 c4 04             	add    sp,0x4
    1275:	21 c0                	and    ax,ax
    1277:	75 22                	jne    0x129b
    1279:	8c c3                	mov    bx,es
    127b:	c7 07 08 00          	mov    WORD PTR [bx],0x8
    127f:	80 4d 06 40          	or     BYTE PTR [di+0x6],0x40
    1283:	e9 5a fe             	jmp    0x10e0
    1286:	8b 5e fc             	mov    bx,WORD PTR [bp-0x4]
    1289:	8b 07                	mov    ax,WORD PTR [bx]
    128b:	89 46 f8             	mov    WORD PTR [bp-0x8],ax
    128e:	8b 47 02             	mov    ax,WORD PTR [bx+0x2]
    1291:	89 46 fe             	mov    WORD PTR [bp-0x2],ax
    1294:	83 46 fc 04          	add    WORD PTR [bp-0x4],0x4
    1298:	e9 6d ff             	jmp    0x1208
    129b:	ff 76 f6             	push   WORD PTR [bp-0xa]
    129e:	ff 75 0a             	push   WORD PTR [di+0xa]
    12a1:	50                   	push   ax
    12a2:	e8 6e 04             	call   0x1713
    12a5:	8b 45 06             	mov    ax,WORD PTR [di+0x6]
    12a8:	25 7f fb             	and    ax,0xfb7f
    12ab:	0c 80                	or     al,0x80
    12ad:	89 45 06             	mov    WORD PTR [di+0x6],ax
    12b0:	83 c4 06             	add    sp,0x6
    12b3:	89 75 0a             	mov    WORD PTR [di+0xa],si
    12b6:	89 f2                	mov    dx,si
    12b8:	03 56 f6             	add    dx,WORD PTR [bp-0xa]
    12bb:	89 15                	mov    WORD PTR [di],dx
    12bd:	8b 46 fa             	mov    ax,WORD PTR [bp-0x6]
    12c0:	89 45 0c             	mov    WORD PTR [di+0xc],ax
    12c3:	8b 76 fe             	mov    si,WORD PTR [bp-0x2]
    12c6:	92                   	xchg   dx,ax
    12c7:	2b 56 f6             	sub    dx,WORD PTR [bp-0xa]
    12ca:	89 55 04             	mov    WORD PTR [di+0x4],dx
    12cd:	39 76 fe             	cmp    WORD PTR [bp-0x2],si
    12d0:	73 03                	jae    0x12d5
    12d2:	8b 76 fe             	mov    si,WORD PTR [bp-0x2]
    12d5:	56                   	push   si
    12d6:	ff 76 f8             	push   WORD PTR [bp-0x8]
    12d9:	ff 35                	push   WORD PTR [di]
    12db:	e8 55 04             	call   0x1733
    12de:	29 75 04             	sub    WORD PTR [di+0x4],si
    12e1:	01 35                	add    WORD PTR [di],si
    12e3:	8b 76 fe             	mov    si,WORD PTR [bp-0x2]
    12e6:	83 c4 06             	add    sp,0x6
    12e9:	01 76 f8             	add    WORD PTR [bp-0x8],si
    12ec:	29 76 fe             	sub    WORD PTR [bp-0x2],si
    12ef:	8b 5e 0e             	mov    bx,WORD PTR [bp+0xe]
    12f2:	8b 47 04             	mov    ax,WORD PTR [bx+0x4]
    12f5:	89 46 fa             	mov    WORD PTR [bp-0x6],ax
    12f8:	29 f0                	sub    ax,si
    12fa:	89 47 04             	mov    WORD PTR [bx+0x4],ax
    12fd:	21 c0                	and    ax,ax
    12ff:	74 03                	je     0x1304
    1301:	e9 04 ff             	jmp    0x1208
    1304:	e9 56 fd             	jmp    0x105d
    1307:	ff 76 fa             	push   WORD PTR [bp-0x6]
    130a:	ff 76 f2             	push   WORD PTR [bp-0xe]
    130d:	06                   	push   es
    130e:	e8 ab 06             	call   0x19bc
    1311:	89 c6                	mov    si,ax
    1313:	83 c4 06             	add    sp,0x6
    1316:	21 c0                	and    ax,ax
    1318:	75 99                	jne    0x12b3
    131a:	ff 75 0a             	push   WORD PTR [di+0xa]
    131d:	06                   	push   es
    131e:	e8 88 04             	call   0x17a9
    1321:	80 65 06 7f          	and    BYTE PTR [di+0x6],0x7f
    1325:	8c c3                	mov    bx,es
    1327:	c7 07 08 00          	mov    WORD PTR [bx],0x8
    132b:	83 c4 04             	add    sp,0x4
    132e:	e9 4e ff             	jmp    0x127f
    1331:	8b 15                	mov    dx,WORD PTR [di]
    1333:	3b 55 0a             	cmp    dx,WORD PTR [di+0xa]
    1336:	77 08                	ja     0x1340
    1338:	8b 4d 0c             	mov    cx,WORD PTR [di+0xc]
    133b:	39 4e fe             	cmp    WORD PTR [bp-0x2],cx
    133e:	73 33                	jae    0x1373
    1340:	3b 76 fe             	cmp    si,WORD PTR [bp-0x2]
    1343:	76 03                	jbe    0x1348
    1345:	8b 76 fe             	mov    si,WORD PTR [bp-0x2]
    1348:	56                   	push   si
    1349:	ff 76 f8             	push   WORD PTR [bp-0x8]
    134c:	52                   	push   dx
    134d:	e8 e3 03             	call   0x1733
    1350:	8b 45 04             	mov    ax,WORD PTR [di+0x4]
    1353:	29 f0                	sub    ax,si
    1355:	89 45 04             	mov    WORD PTR [di+0x4],ax
    1358:	01 35                	add    WORD PTR [di],si
    135a:	83 c4 06             	add    sp,0x6
    135d:	21 c0                	and    ax,ax
    135f:	75 88                	jne    0x12e9
    1361:	57                   	push   di
    1362:	06                   	push   es
    1363:	e8 42 f1             	call   0x4a8
    1366:	83 c4 04             	add    sp,0x4
    1369:	21 c0                	and    ax,ax
    136b:	75 03                	jne    0x1370
    136d:	e9 79 ff             	jmp    0x12e9
    1370:	e9 0c ff             	jmp    0x127f
    1373:	8b 46 fe             	mov    ax,WORD PTR [bp-0x2]
    1376:	3d ff 7f             	cmp    ax,0x7fff
    1379:	76 03                	jbe    0x137e
    137b:	b8 ff 7f             	mov    ax,0x7fff
    137e:	99                   	cwd    
    137f:	f7 f9                	idiv   cx
    1381:	f7 e1                	mul    cx
    1383:	50                   	push   ax
    1384:	ff 76 f8             	push   WORD PTR [bp-0x8]
    1387:	ff 75 12             	push   WORD PTR [di+0x12]
    138a:	06                   	push   es
    138b:	ff 55 16             	call   WORD PTR [di+0x16]
    138e:	89 c6                	mov    si,ax
    1390:	83 c4 08             	add    sp,0x8
    1393:	21 c0                	and    ax,ax
    1395:	7e 03                	jle    0x139a
    1397:	e9 4f ff             	jmp    0x12e9
    139a:	e9 e2 fe             	jmp    0x127f
    139d:	8b 5e fc             	mov    bx,WORD PTR [bp-0x4]
    13a0:	8b 07                	mov    ax,WORD PTR [bx]
    13a2:	89 46 fe             	mov    WORD PTR [bp-0x2],ax
    13a5:	8b 77 02             	mov    si,WORD PTR [bx+0x2]
    13a8:	83 46 fc 04          	add    WORD PTR [bp-0x4],0x4
    13ac:	8b 46 f8             	mov    ax,WORD PTR [bp-0x8]
    13af:	e9 a5 fd             	jmp    0x1157
    13b2:	39 c1                	cmp    cx,ax
    13b4:	7c 1a                	jl     0x13d0
    13b6:	50                   	push   ax
    13b7:	ff 76 fe             	push   WORD PTR [bp-0x2]
    13ba:	ff 75 12             	push   WORD PTR [di+0x12]
    13bd:	06                   	push   es
    13be:	ff 55 16             	call   WORD PTR [di+0x16]
    13c1:	89 c2                	mov    dx,ax
    13c3:	83 c4 08             	add    sp,0x8
    13c6:	21 c0                	and    ax,ax
    13c8:	7e 03                	jle    0x13cd
    13ca:	e9 f8 fd             	jmp    0x11c5
    13cd:	e9 af fe             	jmp    0x127f
    13d0:	51                   	push   cx
    13d1:	89 4e f4             	mov    WORD PTR [bp-0xc],cx
    13d4:	ff 76 fe             	push   WORD PTR [bp-0x2]
    13d7:	53                   	push   bx
    13d8:	e8 58 03             	call   0x1733
    13db:	8b 4e f4             	mov    cx,WORD PTR [bp-0xc]
    13de:	29 4d 04             	sub    WORD PTR [di+0x4],cx
    13e1:	01 0d                	add    WORD PTR [di],cx
    13e3:	83 c4 06             	add    sp,0x6
    13e6:	89 ca                	mov    dx,cx
    13e8:	e9 da fd             	jmp    0x11c5
    13eb:	56                   	push   si
    13ec:	57                   	push   di
    13ed:	55                   	push   bp
    13ee:	89 e5                	mov    bp,sp
    13f0:	1e                   	push   ds
    13f1:	1e                   	push   ds
    13f2:	8b 76 08             	mov    si,WORD PTR [bp+0x8]
    13f5:	83 c6 24             	add    si,0x24
    13f8:	31 d2                	xor    dx,dx
    13fa:	21 f6                	and    si,si
    13fc:	75 07                	jne    0x1405
    13fe:	92                   	xchg   dx,ax
    13ff:	89 ec                	mov    sp,bp
    1401:	5d                   	pop    bp
    1402:	5f                   	pop    di
    1403:	5e                   	pop    si
    1404:	c3                   	ret    
    1405:	8b 7c 04             	mov    di,WORD PTR [si+0x4]
    1408:	8b 4c 02             	mov    cx,WORD PTR [si+0x2]
    140b:	49                   	dec    cx
    140c:	79 04                	jns    0x1412
    140e:	8b 34                	mov    si,WORD PTR [si]
    1410:	eb e8                	jmp    0x13fa
    1412:	83 7d 06 01          	cmp    WORD PTR [di+0x6],0x1
    1416:	76 1b                	jbe    0x1433
    1418:	83 7d 08 ff          	cmp    WORD PTR [di+0x8],0xffff
    141c:	74 15                	je     0x1433
    141e:	89 56 fc             	mov    WORD PTR [bp-0x4],dx
    1421:	89 4e fe             	mov    WORD PTR [bp-0x2],cx
    1424:	57                   	push   di
    1425:	ff 56 0a             	call   WORD PTR [bp+0xa]
    1428:	8b 56 fc             	mov    dx,WORD PTR [bp-0x4]
    142b:	09 c2                	or     dx,ax
    142d:	83 c4 02             	add    sp,0x2
    1430:	8b 4e fe             	mov    cx,WORD PTR [bp-0x2]
    1433:	83 c7 3a             	add    di,0x3a
    1436:	eb d3                	jmp    0x140b
    1438:	56                   	push   si
    1439:	57                   	push   di
    143a:	55                   	push   bp
    143b:	89 e5                	mov    bp,sp
    143d:	1e                   	push   ds
    143e:	1e                   	push   ds
    143f:	8b 76 08             	mov    si,WORD PTR [bp+0x8]
    1442:	83 c6 24             	add    si,0x24
    1445:	31 d2                	xor    dx,dx
    1447:	21 f6                	and    si,si
    1449:	75 07                	jne    0x1452
    144b:	92                   	xchg   dx,ax
    144c:	89 ec                	mov    sp,bp
    144e:	5d                   	pop    bp
    144f:	5f                   	pop    di
    1450:	5e                   	pop    si
    1451:	c3                   	ret    
    1452:	8b 7c 04             	mov    di,WORD PTR [si+0x4]
    1455:	8b 4c 02             	mov    cx,WORD PTR [si+0x2]
    1458:	49                   	dec    cx
    1459:	79 04                	jns    0x145f
    145b:	8b 34                	mov    si,WORD PTR [si]
    145d:	eb e8                	jmp    0x1447
    145f:	83 7d 06 01          	cmp    WORD PTR [di+0x6],0x1
    1463:	76 1e                	jbe    0x1483
    1465:	83 7d 08 ff          	cmp    WORD PTR [di+0x8],0xffff
    1469:	74 18                	je     0x1483
    146b:	89 56 fc             	mov    WORD PTR [bp-0x4],dx
    146e:	89 4e fe             	mov    WORD PTR [bp-0x2],cx
    1471:	57                   	push   di
    1472:	ff 76 08             	push   WORD PTR [bp+0x8]
    1475:	ff 56 0a             	call   WORD PTR [bp+0xa]
    1478:	8b 56 fc             	mov    dx,WORD PTR [bp-0x4]
    147b:	09 c2                	or     dx,ax
    147d:	83 c4 04             	add    sp,0x4
    1480:	8b 4e fe             	mov    cx,WORD PTR [bp-0x2]
    1483:	83 c7 3a             	add    di,0x3a
    1486:	eb d0                	jmp    0x1458
    1488:	56                   	push   si
    1489:	57                   	push   di
    148a:	55                   	push   bp
    148b:	89 e5                	mov    bp,sp
    148d:	83 ec 0c             	sub    sp,0xc
    1490:	8b 7e 08             	mov    di,WORD PTR [bp+0x8]
    1493:	8b 4e 10             	mov    cx,WORD PTR [bp+0x10]
    1496:	8b 56 0a             	mov    dx,WORD PTR [bp+0xa]
    1499:	89 56 f6             	mov    WORD PTR [bp-0xa],dx
    149c:	8b 46 0e             	mov    ax,WORD PTR [bp+0xe]
    149f:	f7 66 0c             	mul    WORD PTR [bp+0xc]
    14a2:	89 c6                	mov    si,ax
    14a4:	89 46 f8             	mov    WORD PTR [bp-0x8],ax
    14a7:	89 46 fe             	mov    WORD PTR [bp-0x2],ax
    14aa:	8d 56 f6             	lea    dx,[bp-0xa]
    14ad:	89 56 fa             	mov    WORD PTR [bp-0x6],dx
    14b0:	c7 46 fc 01 00       	mov    WORD PTR [bp-0x4],0x1
    14b5:	21 ff                	and    di,di
    14b7:	74 13                	je     0x14cc
    14b9:	83 7d 0c 00          	cmp    WORD PTR [di+0xc],0x0
    14bd:	75 0d                	jne    0x14cc
    14bf:	89 4e f4             	mov    WORD PTR [bp-0xc],cx
    14c2:	57                   	push   di
    14c3:	e8 a7 f3             	call   0x86d
    14c6:	83 c4 02             	add    sp,0x2
    14c9:	8b 4e f4             	mov    cx,WORD PTR [bp-0xc]
    14cc:	81 f9 3e 10          	cmp    cx,0x103e
    14d0:	75 28                	jne    0x14fa
    14d2:	8b 4d 02             	mov    cx,WORD PTR [di+0x2]
    14d5:	8d 56 fa             	lea    dx,[bp-0x6]
    14d8:	52                   	push   dx
    14d9:	51                   	push   cx
    14da:	57                   	push   di
    14db:	e8 67 fb             	call   0x1045
    14de:	83 c4 06             	add    sp,0x6
    14e1:	21 c0                	and    ax,ax
    14e3:	74 0c                	je     0x14f1
    14e5:	96                   	xchg   si,ax
    14e6:	2b 46 fe             	sub    ax,WORD PTR [bp-0x2]
    14e9:	31 d2                	xor    dx,dx
    14eb:	f7 76 0c             	div    WORD PTR [bp+0xc]
    14ee:	89 46 0e             	mov    WORD PTR [bp+0xe],ax
    14f1:	8b 46 0e             	mov    ax,WORD PTR [bp+0xe]
    14f4:	89 ec                	mov    sp,bp
    14f6:	5d                   	pop    bp
    14f7:	5f                   	pop    di
    14f8:	5e                   	pop    si
    14f9:	c3                   	ret    
    14fa:	81 f9 2c 10          	cmp    cx,0x102c
    14fe:	75 05                	jne    0x1505
    1500:	8b 4d 04             	mov    cx,WORD PTR [di+0x4]
    1503:	eb d0                	jmp    0x14d5
    1505:	81 f9 1a 10          	cmp    cx,0x101a
    1509:	75 ca                	jne    0x14d5
    150b:	8b 4d 06             	mov    cx,WORD PTR [di+0x6]
    150e:	eb c5                	jmp    0x14d5
    1510:	55                   	push   bp
    1511:	89 e5                	mov    bp,sp
    1513:	ff 76 0a             	push   WORD PTR [bp+0xa]
    1516:	ff 76 08             	push   WORD PTR [bp+0x8]
    1519:	ff 76 06             	push   WORD PTR [bp+0x6]
    151c:	ff 76 04             	push   WORD PTR [bp+0x4]
    151f:	ff 36 a2 18          	push   WORD PTR ds:0x18a2
    1523:	e8 62 ff             	call   0x1488
    1526:	83 c4 0a             	add    sp,0xa
    1529:	89 ec                	mov    sp,bp
    152b:	5d                   	pop    bp
    152c:	c3                   	ret    
    152d:	56                   	push   si
    152e:	06                   	push   es
    152f:	55                   	push   bp
    1530:	89 e5                	mov    bp,sp
    1532:	1e                   	push   ds
    1533:	8e 46 08             	mov    es,WORD PTR [bp+0x8]
    1536:	8b 76 0a             	mov    si,WORD PTR [bp+0xa]
    1539:	8b 44 02             	mov    ax,WORD PTR [si+0x2]
    153c:	48                   	dec    ax
    153d:	89 44 02             	mov    WORD PTR [si+0x2],ax
    1540:	21 c0                	and    ax,ax
    1542:	7d 49                	jge    0x158d
    1544:	56                   	push   si
    1545:	06                   	push   es
    1546:	e8 bb 09             	call   0x1f04
    1549:	83 c4 04             	add    sp,0x4
    154c:	8b 54 07             	mov    dx,WORD PTR [si+0x7]
    154f:	b1 06                	mov    cl,0x6
    1551:	d3 ea                	shr    dx,cl
    1553:	83 e2 01             	and    dx,0x1
    1556:	89 56 fe             	mov    WORD PTR [bp-0x2],dx
    1559:	80 7e fe 00          	cmp    BYTE PTR [bp-0x2],0x0
    155d:	74 28                	je     0x1587
    155f:	83 f8 0d             	cmp    ax,0xd
    1562:	75 23                	jne    0x1587
    1564:	8b 44 02             	mov    ax,WORD PTR [si+0x2]
    1567:	48                   	dec    ax
    1568:	89 44 02             	mov    WORD PTR [si+0x2],ax
    156b:	21 c0                	and    ax,ax
    156d:	7d 2b                	jge    0x159a
    156f:	56                   	push   si
    1570:	06                   	push   es
    1571:	e8 90 09             	call   0x1f04
    1574:	83 c4 04             	add    sp,0x4
    1577:	83 f8 0a             	cmp    ax,0xa
    157a:	74 0b                	je     0x1587
    157c:	56                   	push   si
    157d:	50                   	push   ax
    157e:	e8 9b 33             	call   0x491c
    1581:	83 c4 04             	add    sp,0x4
    1584:	b8 0d 00             	mov    ax,0xd
    1587:	89 ec                	mov    sp,bp
    1589:	5d                   	pop    bp
    158a:	07                   	pop    es
    158b:	5e                   	pop    si
    158c:	c3                   	ret    
    158d:	8b 1c                	mov    bx,WORD PTR [si]
    158f:	8d 47 01             	lea    ax,[bx+0x1]
    1592:	89 04                	mov    WORD PTR [si],ax
    1594:	8a 07                	mov    al,BYTE PTR [bx]
    1596:	30 e4                	xor    ah,ah
    1598:	eb b2                	jmp    0x154c
    159a:	8b 1c                	mov    bx,WORD PTR [si]
    159c:	8d 47 01             	lea    ax,[bx+0x1]
    159f:	89 04                	mov    WORD PTR [si],ax
    15a1:	8a 07                	mov    al,BYTE PTR [bx]
    15a3:	30 e4                	xor    ah,ah
    15a5:	eb d0                	jmp    0x1577
    15a7:	56                   	push   si
    15a8:	57                   	push   di
    15a9:	55                   	push   bp
    15aa:	89 e5                	mov    bp,sp
    15ac:	8b 76 08             	mov    si,WORD PTR [bp+0x8]
    15af:	8b 7e 0a             	mov    di,WORD PTR [bp+0xa]
    15b2:	21 f6                	and    si,si
    15b4:	74 0d                	je     0x15c3
    15b6:	83 7c 0c 00          	cmp    WORD PTR [si+0xc],0x0
    15ba:	75 07                	jne    0x15c3
    15bc:	56                   	push   si
    15bd:	e8 ad f2             	call   0x86d
    15c0:	83 c4 02             	add    sp,0x2
    15c3:	81 ff 3e 10          	cmp    di,0x103e
    15c7:	75 11                	jne    0x15da
    15c9:	8b 7c 02             	mov    di,WORD PTR [si+0x2]
    15cc:	89 7e 0a             	mov    WORD PTR [bp+0xa],di
    15cf:	89 76 08             	mov    WORD PTR [bp+0x8],si
    15d2:	89 ec                	mov    sp,bp
    15d4:	5d                   	pop    bp
    15d5:	5f                   	pop    di
    15d6:	5e                   	pop    si
    15d7:	e9 53 ff             	jmp    0x152d
    15da:	81 ff 2c 10          	cmp    di,0x102c
    15de:	75 05                	jne    0x15e5
    15e0:	8b 7c 04             	mov    di,WORD PTR [si+0x4]
    15e3:	eb e7                	jmp    0x15cc
    15e5:	81 ff 1a 10          	cmp    di,0x101a
    15e9:	75 e1                	jne    0x15cc
    15eb:	8b 7c 06             	mov    di,WORD PTR [si+0x6]
    15ee:	eb dc                	jmp    0x15cc
    15f0:	56                   	push   si
    15f1:	57                   	push   di
    15f2:	55                   	push   bp
    15f3:	89 e5                	mov    bp,sp
    15f5:	8b 7e 08             	mov    di,WORD PTR [bp+0x8]
    15f8:	8b 36 a2 18          	mov    si,WORD PTR ds:0x18a2
    15fc:	21 f6                	and    si,si
    15fe:	74 0d                	je     0x160d
    1600:	83 7c 0c 00          	cmp    WORD PTR [si+0xc],0x0
    1604:	75 07                	jne    0x160d
    1606:	56                   	push   si
    1607:	e8 63 f2             	call   0x86d
    160a:	83 c4 02             	add    sp,0x2
    160d:	81 ff 3e 10          	cmp    di,0x103e
    1611:	75 11                	jne    0x1624
    1613:	8b 7c 02             	mov    di,WORD PTR [si+0x2]
    1616:	57                   	push   di
    1617:	56                   	push   si
    1618:	e8 12 ff             	call   0x152d
    161b:	83 c4 04             	add    sp,0x4
    161e:	89 ec                	mov    sp,bp
    1620:	5d                   	pop    bp
    1621:	5f                   	pop    di
    1622:	5e                   	pop    si
    1623:	c3                   	ret    
    1624:	81 ff 2c 10          	cmp    di,0x102c
    1628:	75 05                	jne    0x162f
    162a:	8b 7c 04             	mov    di,WORD PTR [si+0x4]
    162d:	eb e7                	jmp    0x1616
    162f:	81 ff 1a 10          	cmp    di,0x101a
    1633:	75 e1                	jne    0x1616
    1635:	8b 7c 06             	mov    di,WORD PTR [si+0x6]
    1638:	eb dc                	jmp    0x1616
    163a:	56                   	push   si
    163b:	57                   	push   di
    163c:	89 e3                	mov    bx,sp
    163e:	8b 77 08             	mov    si,WORD PTR [bx+0x8]
    1641:	8b 7f 0a             	mov    di,WORD PTR [bx+0xa]
    1644:	8b 5f 0c             	mov    bx,WORD PTR [bx+0xc]
    1647:	83 7c 08 00          	cmp    WORD PTR [si+0x8],0x0
    164b:	7d 13                	jge    0x1660
    164d:	c7 07 00 00          	mov    WORD PTR [bx],0x0
    1651:	f6 44 06 80          	test   BYTE PTR [si+0x6],0x80
    1655:	74 0d                	je     0x1664
    1657:	c7 05 40 00          	mov    WORD PTR [di],0x40
    165b:	31 c0                	xor    ax,ax
    165d:	5f                   	pop    di
    165e:	5e                   	pop    si
    165f:	c3                   	ret    
    1660:	c7 07 01 00          	mov    WORD PTR [bx],0x1
    1664:	c7 05 00 04          	mov    WORD PTR [di],0x400
    1668:	eb f1                	jmp    0x165b
    166a:	56                   	push   si
    166b:	57                   	push   di
    166c:	06                   	push   es
    166d:	55                   	push   bp
    166e:	89 e5                	mov    bp,sp
    1670:	1e                   	push   ds
    1671:	1e                   	push   ds
    1672:	8e 46 0a             	mov    es,WORD PTR [bp+0xa]
    1675:	8b 76 0c             	mov    si,WORD PTR [bp+0xc]
    1678:	f6 44 06 02          	test   BYTE PTR [si+0x6],0x2
    167c:	74 14                	je     0x1692
    167e:	8d 44 27             	lea    ax,[si+0x27]
    1681:	89 04                	mov    WORD PTR [si],ax
    1683:	89 44 0a             	mov    WORD PTR [si+0xa],ax
    1686:	c7 44 0c 01 00       	mov    WORD PTR [si+0xc],0x1
    168b:	89 ec                	mov    sp,bp
    168d:	5d                   	pop    bp
    168e:	07                   	pop    es
    168f:	5f                   	pop    di
    1690:	5e                   	pop    si
    1691:	c3                   	ret    
    1692:	8d 46 fe             	lea    ax,[bp-0x2]
    1695:	50                   	push   ax
    1696:	8d 46 fc             	lea    ax,[bp-0x4]
    1699:	50                   	push   ax
    169a:	56                   	push   si
    169b:	06                   	push   es
    169c:	e8 9b ff             	call   0x163a
    169f:	97                   	xchg   di,ax
    16a0:	ff 76 fc             	push   WORD PTR [bp-0x4]
    16a3:	06                   	push   es
    16a4:	e8 cd 01             	call   0x1874
    16a7:	83 c4 0c             	add    sp,0xc
    16aa:	21 c0                	and    ax,ax
    16ac:	8b 54 06             	mov    dx,WORD PTR [si+0x6]
    16af:	75 0d                	jne    0x16be
    16b1:	f6 c6 02             	test   dh,0x2
    16b4:	75 d5                	jne    0x168b
    16b6:	83 ca 02             	or     dx,0x2
    16b9:	89 54 06             	mov    WORD PTR [si+0x6],dx
    16bc:	eb c0                	jmp    0x167e
    16be:	8c c3                	mov    bx,es
    16c0:	c7 47 14 97 07       	mov    WORD PTR [bx+0x14],0x797
    16c5:	80 ca 80             	or     dl,0x80
    16c8:	89 54 06             	mov    WORD PTR [si+0x6],dx
    16cb:	89 04                	mov    WORD PTR [si],ax
    16cd:	89 44 0a             	mov    WORD PTR [si+0xa],ax
    16d0:	8b 46 fc             	mov    ax,WORD PTR [bp-0x4]
    16d3:	89 44 0c             	mov    WORD PTR [si+0xc],ax
    16d6:	83 7e fe 00          	cmp    WORD PTR [bp-0x2],0x0
    16da:	74 12                	je     0x16ee
    16dc:	ff 74 08             	push   WORD PTR [si+0x8]
    16df:	06                   	push   es
    16e0:	e8 c9 58             	call   0x6fac
    16e3:	83 c4 04             	add    sp,0x4
    16e6:	21 c0                	and    ax,ax
    16e8:	74 04                	je     0x16ee
    16ea:	80 4c 06 01          	or     BYTE PTR [si+0x6],0x1
    16ee:	09 7c 06             	or     WORD PTR [si+0x6],di
    16f1:	eb 98                	jmp    0x168b
    16f3:	89 e3                	mov    bx,sp
    16f5:	57                   	push   di
    16f6:	06                   	push   es
    16f7:	8c df                	mov    di,ds
    16f9:	8e c7                	mov    es,di
    16fb:	8b 7f 02             	mov    di,WORD PTR [bx+0x2]
    16fe:	8a 47 04             	mov    al,BYTE PTR [bx+0x4]
    1701:	8b 4f 06             	mov    cx,WORD PTR [bx+0x6]
    1704:	f2 ae                	repnz scas al,BYTE PTR es:[di]
    1706:	74 05                	je     0x170d
    1708:	31 c0                	xor    ax,ax
    170a:	07                   	pop    es
    170b:	5f                   	pop    di
    170c:	c3                   	ret    
    170d:	89 f8                	mov    ax,di
    170f:	48                   	dec    ax
    1710:	07                   	pop    es
    1711:	5f                   	pop    di
    1712:	c3                   	ret    
    1713:	89 e3                	mov    bx,sp
    1715:	56                   	push   si
    1716:	57                   	push   di
    1717:	06                   	push   es
    1718:	8c de                	mov    si,ds
    171a:	8e c6                	mov    es,si
    171c:	8b 47 02             	mov    ax,WORD PTR [bx+0x2]
    171f:	89 c7                	mov    di,ax
    1721:	8b 77 04             	mov    si,WORD PTR [bx+0x4]
    1724:	8b 4f 06             	mov    cx,WORD PTR [bx+0x6]
    1727:	d1 e9                	shr    cx,1
    1729:	f3 a5                	rep movs WORD PTR es:[di],WORD PTR ds:[si]
    172b:	11 c9                	adc    cx,cx
    172d:	f3 a4                	rep movs BYTE PTR es:[di],BYTE PTR ds:[si]
    172f:	07                   	pop    es
    1730:	5f                   	pop    di
    1731:	5e                   	pop    si
    1732:	c3                   	ret    
    1733:	89 e3                	mov    bx,sp
    1735:	56                   	push   si
    1736:	57                   	push   di
    1737:	06                   	push   es
    1738:	8c de                	mov    si,ds
    173a:	8e c6                	mov    es,si
    173c:	8b 7f 02             	mov    di,WORD PTR [bx+0x2]
    173f:	8b 77 04             	mov    si,WORD PTR [bx+0x4]
    1742:	8b 4f 06             	mov    cx,WORD PTR [bx+0x6]
    1745:	89 f8                	mov    ax,di
    1747:	39 fe                	cmp    si,di
    1749:	77 23                	ja     0x176e
    174b:	01 ce                	add    si,cx
    174d:	01 cf                	add    di,cx
    174f:	4f                   	dec    di
    1750:	fd                   	std    
    1751:	39 f7                	cmp    di,si
    1753:	75 08                	jne    0x175d
    1755:	4e                   	dec    si
    1756:	f3 a4                	rep movs BYTE PTR es:[di],BYTE PTR ds:[si]
    1758:	fc                   	cld    
    1759:	07                   	pop    es
    175a:	5f                   	pop    di
    175b:	5e                   	pop    si
    175c:	c3                   	ret    
    175d:	4f                   	dec    di
    175e:	4e                   	dec    si
    175f:	4e                   	dec    si
    1760:	d1 e9                	shr    cx,1
    1762:	f3 a5                	rep movs WORD PTR es:[di],WORD PTR ds:[si]
    1764:	73 03                	jae    0x1769
    1766:	46                   	inc    si
    1767:	47                   	inc    di
    1768:	a4                   	movs   BYTE PTR es:[di],BYTE PTR ds:[si]
    1769:	fc                   	cld    
    176a:	07                   	pop    es
    176b:	5f                   	pop    di
    176c:	5e                   	pop    si
    176d:	c3                   	ret    
    176e:	47                   	inc    di
    176f:	39 f7                	cmp    di,si
    1771:	75 07                	jne    0x177a
    1773:	4f                   	dec    di
    1774:	f3 a4                	rep movs BYTE PTR es:[di],BYTE PTR ds:[si]
    1776:	07                   	pop    es
    1777:	5f                   	pop    di
    1778:	5e                   	pop    si
    1779:	c3                   	ret    
    177a:	4f                   	dec    di
    177b:	d1 e9                	shr    cx,1
    177d:	f3 a5                	rep movs WORD PTR es:[di],WORD PTR ds:[si]
    177f:	11 c9                	adc    cx,cx
    1781:	f3 a4                	rep movs BYTE PTR es:[di],BYTE PTR ds:[si]
    1783:	07                   	pop    es
    1784:	5f                   	pop    di
    1785:	5e                   	pop    si
    1786:	c3                   	ret    
    1787:	89 e3                	mov    bx,sp
    1789:	57                   	push   di
    178a:	06                   	push   es
    178b:	8c df                	mov    di,ds
    178d:	8e c7                	mov    es,di
    178f:	8b 7f 02             	mov    di,WORD PTR [bx+0x2]
    1792:	8a 47 04             	mov    al,BYTE PTR [bx+0x4]
    1795:	8b 4f 06             	mov    cx,WORD PTR [bx+0x6]
    1798:	89 fb                	mov    bx,di
    179a:	88 c4                	mov    ah,al
    179c:	d1 e9                	shr    cx,1
    179e:	f3 ab                	rep stos WORD PTR es:[di],ax
    17a0:	11 c9                	adc    cx,cx
    17a2:	f3 aa                	rep stos BYTE PTR es:[di],al
    17a4:	89 d8                	mov    ax,bx
    17a6:	07                   	pop    es
    17a7:	5f                   	pop    di
    17a8:	c3                   	ret    
    17a9:	56                   	push   si
    17aa:	57                   	push   di
    17ab:	55                   	push   bp
    17ac:	89 e5                	mov    bp,sp
    17ae:	8b 76 0a             	mov    si,WORD PTR [bp+0xa]
    17b1:	21 f6                	and    si,si
    17b3:	74 51                	je     0x1806
    17b5:	8d 5c fe             	lea    bx,[si-0x2]
    17b8:	8b 44 fe             	mov    ax,WORD PTR [si-0x2]
    17bb:	a8 01                	test   al,0x1
    17bd:	74 05                	je     0x17c4
    17bf:	83 e0 fe             	and    ax,0xfffe
    17c2:	29 c3                	sub    bx,ax
    17c4:	8b 07                	mov    ax,WORD PTR [bx]
    17c6:	89 c2                	mov    dx,ax
    17c8:	83 e2 01             	and    dx,0x1
    17cb:	74 12                	je     0x17df
    17cd:	b8 27 00             	mov    ax,0x27
    17d0:	50                   	push   ax
    17d1:	b8 79 10             	mov    ax,0x1079
    17d4:	50                   	push   ax
    17d5:	b8 02 00             	mov    ax,0x2
    17d8:	50                   	push   ax
    17d9:	e8 8f 2f             	call   0x476b
    17dc:	e8 97 c3             	call   0xdb76
    17df:	8b 3e 8c 1a          	mov    di,WORD PTR ds:0x1a8c
    17e3:	21 ff                	and    di,di
    17e5:	75 05                	jne    0x17ec
    17e7:	89 7f 02             	mov    WORD PTR [bx+0x2],di
    17ea:	eb 16                	jmp    0x1802
    17ec:	39 df                	cmp    di,bx
    17ee:	76 1c                	jbe    0x180c
    17f0:	89 da                	mov    dx,bx
    17f2:	01 c2                	add    dx,ax
    17f4:	39 d7                	cmp    di,dx
    17f6:	75 ef                	jne    0x17e7
    17f8:	03 05                	add    ax,WORD PTR [di]
    17fa:	89 07                	mov    WORD PTR [bx],ax
    17fc:	8b 45 02             	mov    ax,WORD PTR [di+0x2]
    17ff:	89 47 02             	mov    WORD PTR [bx+0x2],ax
    1802:	89 1e 8c 1a          	mov    WORD PTR ds:0x1a8c,bx
    1806:	89 ec                	mov    sp,bp
    1808:	5d                   	pop    bp
    1809:	5f                   	pop    di
    180a:	5e                   	pop    si
    180b:	c3                   	ret    
    180c:	b1 01                	mov    cl,0x1
    180e:	88 d6                	mov    dh,dl
    1810:	8b 75 02             	mov    si,WORD PTR [di+0x2]
    1813:	83 fe 01             	cmp    si,0x1
    1816:	18 d2                	sbb    dl,dl
    1818:	fe c2                	inc    dl
    181a:	88 cd                	mov    ch,cl
    181c:	39 de                	cmp    si,bx
    181e:	76 02                	jbe    0x1822
    1820:	88 f5                	mov    ch,dh
    1822:	84 ea                	test   dl,ch
    1824:	75 22                	jne    0x1848
    1826:	8b 15                	mov    dx,WORD PTR [di]
    1828:	89 f9                	mov    cx,di
    182a:	01 d1                	add    cx,dx
    182c:	39 d9                	cmp    cx,bx
    182e:	75 1c                	jne    0x184c
    1830:	01 d0                	add    ax,dx
    1832:	89 05                	mov    WORD PTR [di],ax
    1834:	89 fa                	mov    dx,di
    1836:	01 c2                	add    dx,ax
    1838:	39 d6                	cmp    si,dx
    183a:	75 ca                	jne    0x1806
    183c:	03 04                	add    ax,WORD PTR [si]
    183e:	89 05                	mov    WORD PTR [di],ax
    1840:	8b 44 02             	mov    ax,WORD PTR [si+0x2]
    1843:	89 45 02             	mov    WORD PTR [di+0x2],ax
    1846:	eb be                	jmp    0x1806
    1848:	89 f7                	mov    di,si
    184a:	eb c4                	jmp    0x1810
    184c:	76 0a                	jbe    0x1858
    184e:	b8 26 00             	mov    ax,0x26
    1851:	50                   	push   ax
    1852:	b8 52 10             	mov    ax,0x1052
    1855:	e9 7c ff             	jmp    0x17d4
    1858:	89 da                	mov    dx,bx
    185a:	01 c2                	add    dx,ax
    185c:	39 d6                	cmp    si,dx
    185e:	75 0f                	jne    0x186f
    1860:	03 04                	add    ax,WORD PTR [si]
    1862:	89 07                	mov    WORD PTR [bx],ax
    1864:	8b 44 02             	mov    ax,WORD PTR [si+0x2]
    1867:	89 47 02             	mov    WORD PTR [bx+0x2],ax
    186a:	89 5d 02             	mov    WORD PTR [di+0x2],bx
    186d:	eb 97                	jmp    0x1806
    186f:	89 77 02             	mov    WORD PTR [bx+0x2],si
    1872:	eb f6                	jmp    0x186a
    1874:	56                   	push   si
    1875:	57                   	push   di
    1876:	06                   	push   es
    1877:	55                   	push   bp
    1878:	89 e5                	mov    bp,sp
    187a:	1e                   	push   ds
    187b:	1e                   	push   ds
    187c:	8b 5e 0c             	mov    bx,WORD PTR [bp+0xc]
    187f:	43                   	inc    bx
    1880:	83 e3 fe             	and    bx,0xfffe
    1883:	83 c3 08             	add    bx,0x8
    1886:	83 fb 0a             	cmp    bx,0xa
    1889:	73 03                	jae    0x188e
    188b:	bb 0a 00             	mov    bx,0xa
    188e:	39 5e 0c             	cmp    WORD PTR [bp+0xc],bx
    1891:	76 10                	jbe    0x18a3
    1893:	8b 5e 0a             	mov    bx,WORD PTR [bp+0xa]
    1896:	c7 07 08 00          	mov    WORD PTR [bx],0x8
    189a:	31 c0                	xor    ax,ax
    189c:	89 ec                	mov    sp,bp
    189e:	5d                   	pop    bp
    189f:	07                   	pop    es
    18a0:	5f                   	pop    di
    18a1:	5e                   	pop    si
    18a2:	c3                   	ret    
    18a3:	8e 06 8c 1a          	mov    es,WORD PTR ds:0x1a8c
    18a7:	8c c6                	mov    si,es
    18a9:	8c c7                	mov    di,es
    18ab:	21 f6                	and    si,si
    18ad:	75 19                	jne    0x18c8
    18af:	89 5e fe             	mov    WORD PTR [bp-0x2],bx
    18b2:	56                   	push   si
    18b3:	ff 76 0a             	push   WORD PTR [bp+0xa]
    18b6:	e8 bf 06             	call   0x1f78
    18b9:	83 c4 04             	add    sp,0x4
    18bc:	21 ff                	and    di,di
    18be:	8b 5e fe             	mov    bx,WORD PTR [bp-0x2]
    18c1:	75 2d                	jne    0x18f0
    18c3:	89 7e fe             	mov    WORD PTR [bp-0x2],di
    18c6:	eb 36                	jmp    0x18fe
    18c8:	8b 04                	mov    ax,WORD PTR [si]
    18ca:	a8 01                	test   al,0x1
    18cc:	74 12                	je     0x18e0
    18ce:	b8 29 00             	mov    ax,0x29
    18d1:	50                   	push   ax
    18d2:	b8 a1 10             	mov    ax,0x10a1
    18d5:	50                   	push   ax
    18d6:	b8 02 00             	mov    ax,0x2
    18d9:	50                   	push   ax
    18da:	e8 8e 2e             	call   0x476b
    18dd:	e8 96 c2             	call   0xdb76
    18e0:	39 c3                	cmp    bx,ax
    18e2:	77 03                	ja     0x18e7
    18e4:	e9 8c 00             	jmp    0x1973
    18e7:	8e c7                	mov    es,di
    18e9:	89 f7                	mov    di,si
    18eb:	8b 74 02             	mov    si,WORD PTR [si+0x2]
    18ee:	eb bb                	jmp    0x18ab
    18f0:	8b 15                	mov    dx,WORD PTR [di]
    18f2:	89 56 fe             	mov    WORD PTR [bp-0x2],dx
    18f5:	01 fa                	add    dx,di
    18f7:	39 d0                	cmp    ax,dx
    18f9:	74 03                	je     0x18fe
    18fb:	89 76 fe             	mov    WORD PTR [bp-0x2],si
    18fe:	89 de                	mov    si,bx
    1900:	2b 76 fe             	sub    si,WORD PTR [bp-0x2]
    1903:	83 3e 8a 1a 00       	cmp    WORD PTR ds:0x1a8a,0x0
    1908:	75 15                	jne    0x191f
    190a:	89 5e fc             	mov    WORD PTR [bp-0x4],bx
    190d:	31 c0                	xor    ax,ax
    190f:	50                   	push   ax
    1910:	ff 76 0a             	push   WORD PTR [bp+0xa]
    1913:	e8 62 06             	call   0x1f78
    1916:	a3 8a 1a             	mov    ds:0x1a8a,ax
    1919:	83 c4 04             	add    sp,0x4
    191c:	8b 5e fc             	mov    bx,WORD PTR [bp-0x4]
    191f:	89 5e fc             	mov    WORD PTR [bp-0x4],bx
    1922:	56                   	push   si
    1923:	ff 76 0a             	push   WORD PTR [bp+0xa]
    1926:	e8 4f 06             	call   0x1f78
    1929:	83 c4 04             	add    sp,0x4
    192c:	83 f8 ff             	cmp    ax,0xffff
    192f:	75 03                	jne    0x1934
    1931:	e9 5f ff             	jmp    0x1893
    1934:	89 c6                	mov    si,ax
    1936:	46                   	inc    si
    1937:	83 e6 fe             	and    si,0xfffe
    193a:	39 f0                	cmp    ax,si
    193c:	8b 5e fc             	mov    bx,WORD PTR [bp-0x4]
    193f:	74 19                	je     0x195a
    1941:	89 f2                	mov    dx,si
    1943:	29 c2                	sub    dx,ax
    1945:	52                   	push   dx
    1946:	ff 76 0a             	push   WORD PTR [bp+0xa]
    1949:	e8 2c 06             	call   0x1f78
    194c:	83 c4 04             	add    sp,0x4
    194f:	83 f8 ff             	cmp    ax,0xffff
    1952:	8b 5e fc             	mov    bx,WORD PTR [bp-0x4]
    1955:	75 03                	jne    0x195a
    1957:	e9 39 ff             	jmp    0x1893
    195a:	83 7e fe 00          	cmp    WORD PTR [bp-0x2],0x0
    195e:	75 08                	jne    0x1968
    1960:	21 ff                	and    di,di
    1962:	75 4d                	jne    0x19b1
    1964:	89 f7                	mov    di,si
    1966:	8e c6                	mov    es,si
    1968:	89 1d                	mov    WORD PTR [di],bx
    196a:	c7 45 02 00 00       	mov    WORD PTR [di+0x2],0x0
    196f:	89 fe                	mov    si,di
    1971:	8c c7                	mov    di,es
    1973:	8b 04                	mov    ax,WORD PTR [si]
    1975:	29 d8                	sub    ax,bx
    1977:	83 f8 09             	cmp    ax,0x9
    197a:	76 0f                	jbe    0x198b
    197c:	8d 10                	lea    dx,[bx+si]
    197e:	89 00                	mov    WORD PTR [bx+si],ax
    1980:	8b 44 02             	mov    ax,WORD PTR [si+0x2]
    1983:	89 40 02             	mov    WORD PTR [bx+si+0x2],ax
    1986:	89 1c                	mov    WORD PTR [si],bx
    1988:	89 54 02             	mov    WORD PTR [si+0x2],dx
    198b:	39 f7                	cmp    di,si
    198d:	8b 44 02             	mov    ax,WORD PTR [si+0x2]
    1990:	75 25                	jne    0x19b7
    1992:	a3 8c 1a             	mov    ds:0x1a8c,ax
    1995:	8d 54 02             	lea    dx,[si+0x2]
    1998:	8d 44 09             	lea    ax,[si+0x9]
    199b:	83 e0 f8             	and    ax,0xfff8
    199e:	89 c3                	mov    bx,ax
    19a0:	29 d3                	sub    bx,dx
    19a2:	75 03                	jne    0x19a7
    19a4:	e9 f5 fe             	jmp    0x189c
    19a7:	89 da                	mov    dx,bx
    19a9:	83 ca 01             	or     dx,0x1
    19ac:	89 10                	mov    WORD PTR [bx+si],dx
    19ae:	e9 eb fe             	jmp    0x189c
    19b1:	8e c7                	mov    es,di
    19b3:	89 f7                	mov    di,si
    19b5:	eb b1                	jmp    0x1968
    19b7:	89 45 02             	mov    WORD PTR [di+0x2],ax
    19ba:	eb d9                	jmp    0x1995
    19bc:	56                   	push   si
    19bd:	57                   	push   di
    19be:	06                   	push   es
    19bf:	55                   	push   bp
    19c0:	89 e5                	mov    bp,sp
    19c2:	1e                   	push   ds
    19c3:	8b 76 0a             	mov    si,WORD PTR [bp+0xa]
    19c6:	c4 7e 0c             	les    di,DWORD PTR [bp+0xc]
    19c9:	21 ff                	and    di,di
    19cb:	75 0c                	jne    0x19d9
    19cd:	8c 46 0c             	mov    WORD PTR [bp+0xc],es
    19d0:	89 ec                	mov    sp,bp
    19d2:	5d                   	pop    bp
    19d3:	07                   	pop    es
    19d4:	5f                   	pop    di
    19d5:	5e                   	pop    si
    19d6:	e9 9b fe             	jmp    0x1874
    19d9:	8c c0                	mov    ax,es
    19db:	21 c0                	and    ax,ax
    19dd:	75 12                	jne    0x19f1
    19df:	57                   	push   di
    19e0:	56                   	push   si
    19e1:	e8 c5 fd             	call   0x17a9
    19e4:	83 c4 04             	add    sp,0x4
    19e7:	8c c2                	mov    dx,es
    19e9:	92                   	xchg   dx,ax
    19ea:	89 ec                	mov    sp,bp
    19ec:	5d                   	pop    bp
    19ed:	07                   	pop    es
    19ee:	5f                   	pop    di
    19ef:	5e                   	pop    si
    19f0:	c3                   	ret    
    19f1:	57                   	push   di
    19f2:	56                   	push   si
    19f3:	e8 10 66             	call   0x8006
    19f6:	91                   	xchg   cx,ax
    19f7:	83 c4 04             	add    sp,0x4
    19fa:	89 fa                	mov    dx,di
    19fc:	8c c0                	mov    ax,es
    19fe:	39 c8                	cmp    ax,cx
    1a00:	76 e7                	jbe    0x19e9
    1a02:	89 4e fe             	mov    WORD PTR [bp-0x2],cx
    1a05:	06                   	push   es
    1a06:	56                   	push   si
    1a07:	e8 6a fe             	call   0x1874
    1a0a:	89 c2                	mov    dx,ax
    1a0c:	83 c4 04             	add    sp,0x4
    1a0f:	21 c0                	and    ax,ax
    1a11:	74 d6                	je     0x19e9
    1a13:	8b 4e fe             	mov    cx,WORD PTR [bp-0x2]
    1a16:	51                   	push   cx
    1a17:	57                   	push   di
    1a18:	50                   	push   ax
    1a19:	89 46 fe             	mov    WORD PTR [bp-0x2],ax
    1a1c:	e8 f4 fc             	call   0x1713
    1a1f:	57                   	push   di
    1a20:	56                   	push   si
    1a21:	e8 85 fd             	call   0x17a9
    1a24:	83 c4 0a             	add    sp,0xa
    1a27:	8b 56 fe             	mov    dx,WORD PTR [bp-0x2]
    1a2a:	eb bd                	jmp    0x19e9
    1a2c:	55                   	push   bp
    1a2d:	89 e5                	mov    bp,sp
    1a2f:	c7 06 24 1b 00 00    	mov    WORD PTR ds:0x1b24,0x0
    1a35:	ff 76 0a             	push   WORD PTR [bp+0xa]
    1a38:	ff 76 08             	push   WORD PTR [bp+0x8]
    1a3b:	ff 76 06             	push   WORD PTR [bp+0x6]
    1a3e:	e8 1b bf             	call   0xd95c
    1a41:	83 c4 06             	add    sp,0x6
    1a44:	83 f8 ff             	cmp    ax,0xffff
    1a47:	75 0d                	jne    0x1a56
    1a49:	8b 16 24 1b          	mov    dx,WORD PTR ds:0x1b24
    1a4d:	21 d2                	and    dx,dx
    1a4f:	74 05                	je     0x1a56
    1a51:	8b 5e 04             	mov    bx,WORD PTR [bp+0x4]
    1a54:	89 17                	mov    WORD PTR [bx],dx
    1a56:	89 ec                	mov    sp,bp
    1a58:	5d                   	pop    bp
    1a59:	c3                   	ret    
    1a5a:	56                   	push   si
    1a5b:	06                   	push   es
    1a5c:	55                   	push   bp
    1a5d:	89 e5                	mov    bp,sp
    1a5f:	1e                   	push   ds
    1a60:	8e 46 08             	mov    es,WORD PTR [bp+0x8]
    1a63:	8b 56 0a             	mov    dx,WORD PTR [bp+0xa]
    1a66:	8b 76 0c             	mov    si,WORD PTR [bp+0xc]
    1a69:	8b 44 07             	mov    ax,WORD PTR [si+0x7]
    1a6c:	b1 06                	mov    cl,0x6
    1a6e:	d3 e8                	shr    ax,cl
    1a70:	83 e0 01             	and    ax,0x1
    1a73:	89 46 fe             	mov    WORD PTR [bp-0x2],ax
    1a76:	80 7e fe 00          	cmp    BYTE PTR [bp-0x2],0x0
    1a7a:	74 17                	je     0x1a93
    1a7c:	83 fa 0a             	cmp    dx,0xa
    1a7f:	75 12                	jne    0x1a93
    1a81:	89 56 fe             	mov    WORD PTR [bp-0x2],dx
    1a84:	56                   	push   si
    1a85:	b8 0d 00             	mov    ax,0xd
    1a88:	50                   	push   ax
    1a89:	06                   	push   es
    1a8a:	e8 cd ff             	call   0x1a5a
    1a8d:	83 c4 06             	add    sp,0x6
    1a90:	8b 56 fe             	mov    dx,WORD PTR [bp-0x2]
    1a93:	8b 44 04             	mov    ax,WORD PTR [si+0x4]
    1a96:	48                   	dec    ax
    1a97:	89 44 04             	mov    WORD PTR [si+0x4],ax
    1a9a:	21 c0                	and    ax,ax
    1a9c:	7d 1b                	jge    0x1ab9
    1a9e:	3b 44 0e             	cmp    ax,WORD PTR [si+0xe]
    1aa1:	7c 05                	jl     0x1aa8
    1aa3:	80 fa 0a             	cmp    dl,0xa
    1aa6:	75 11                	jne    0x1ab9
    1aa8:	89 76 0c             	mov    WORD PTR [bp+0xc],si
    1aab:	89 56 0a             	mov    WORD PTR [bp+0xa],dx
    1aae:	8c 46 08             	mov    WORD PTR [bp+0x8],es
    1ab1:	89 ec                	mov    sp,bp
    1ab3:	5d                   	pop    bp
    1ab4:	07                   	pop    es
    1ab5:	5e                   	pop    si
    1ab6:	e9 28 42             	jmp    0x5ce1
    1ab9:	8b 1c                	mov    bx,WORD PTR [si]
    1abb:	8d 47 01             	lea    ax,[bx+0x1]
    1abe:	89 04                	mov    WORD PTR [si],ax
    1ac0:	88 17                	mov    BYTE PTR [bx],dl
    1ac2:	92                   	xchg   dx,ax
    1ac3:	30 e4                	xor    ah,ah
    1ac5:	89 ec                	mov    sp,bp
    1ac7:	5d                   	pop    bp
    1ac8:	07                   	pop    es
    1ac9:	5e                   	pop    si
    1aca:	c3                   	ret    
    1acb:	56                   	push   si
    1acc:	57                   	push   di
    1acd:	06                   	push   es
    1ace:	55                   	push   bp
    1acf:	89 e5                	mov    bp,sp
    1ad1:	c4 76 0a             	les    si,DWORD PTR [bp+0xa]
    1ad4:	8b 7e 0e             	mov    di,WORD PTR [bp+0xe]
    1ad7:	21 f6                	and    si,si
    1ad9:	74 0d                	je     0x1ae8
    1adb:	83 7c 0c 00          	cmp    WORD PTR [si+0xc],0x0
    1adf:	75 07                	jne    0x1ae8
    1ae1:	56                   	push   si
    1ae2:	e8 88 ed             	call   0x86d
    1ae5:	83 c4 02             	add    sp,0x2
    1ae8:	81 ff 3e 10          	cmp    di,0x103e
    1aec:	75 15                	jne    0x1b03
    1aee:	8b 7c 02             	mov    di,WORD PTR [si+0x2]
    1af1:	89 7e 0e             	mov    WORD PTR [bp+0xe],di
    1af4:	8c 46 0c             	mov    WORD PTR [bp+0xc],es
    1af7:	89 76 0a             	mov    WORD PTR [bp+0xa],si
    1afa:	89 ec                	mov    sp,bp
    1afc:	5d                   	pop    bp
    1afd:	07                   	pop    es
    1afe:	5f                   	pop    di
    1aff:	5e                   	pop    si
    1b00:	e9 57 ff             	jmp    0x1a5a
    1b03:	81 ff 2c 10          	cmp    di,0x102c
    1b07:	75 05                	jne    0x1b0e
    1b09:	8b 7c 04             	mov    di,WORD PTR [si+0x4]
    1b0c:	eb e3                	jmp    0x1af1
    1b0e:	81 ff 1a 10          	cmp    di,0x101a
    1b12:	75 dd                	jne    0x1af1
    1b14:	8b 7c 06             	mov    di,WORD PTR [si+0x6]
    1b17:	eb d8                	jmp    0x1af1
    1b19:	55                   	push   bp
    1b1a:	89 e5                	mov    bp,sp
    1b1c:	ff 76 06             	push   WORD PTR [bp+0x6]
    1b1f:	ff 76 04             	push   WORD PTR [bp+0x4]
    1b22:	ff 36 a2 18          	push   WORD PTR ds:0x18a2
    1b26:	e8 a2 ff             	call   0x1acb
    1b29:	83 c4 06             	add    sp,0x6
    1b2c:	89 ec                	mov    sp,bp
    1b2e:	5d                   	pop    bp
    1b2f:	c3                   	ret    
    1b30:	56                   	push   si
    1b31:	55                   	push   bp
    1b32:	89 e5                	mov    bp,sp
    1b34:	8b 36 a2 18          	mov    si,WORD PTR ds:0x18a2
    1b38:	83 7c 1c 00          	cmp    WORD PTR [si+0x1c],0x0
    1b3c:	75 44                	jne    0x1b82
    1b3e:	b8 16 00             	mov    ax,0x16
    1b41:	50                   	push   ax
    1b42:	e8 51 55             	call   0x7096
    1b45:	89 44 1c             	mov    WORD PTR [si+0x1c],ax
    1b48:	93                   	xchg   bx,ax
    1b49:	c7 07 0e 33          	mov    WORD PTR [bx],0x330e
    1b4d:	c7 47 02 cd ab       	mov    WORD PTR [bx+0x2],0xabcd
    1b52:	c7 47 04 34 12       	mov    WORD PTR [bx+0x4],0x1234
    1b57:	c7 47 06 6d e6       	mov    WORD PTR [bx+0x6],0xe66d
    1b5c:	c7 47 08 ec de       	mov    WORD PTR [bx+0x8],0xdeec
    1b61:	c7 47 0a 05 00       	mov    WORD PTR [bx+0xa],0x5
    1b66:	c7 47 0c 0b 00       	mov    WORD PTR [bx+0xc],0xb
    1b6b:	c7 47 0e 01 00       	mov    WORD PTR [bx+0xe],0x1
    1b70:	c7 47 10 00 00       	mov    WORD PTR [bx+0x10],0x0
    1b75:	c7 47 12 00 00       	mov    WORD PTR [bx+0x12],0x0
    1b7a:	c7 47 14 00 00       	mov    WORD PTR [bx+0x14],0x0
    1b7f:	83 c4 02             	add    sp,0x2
    1b82:	8b 5c 1c             	mov    bx,WORD PTR [si+0x1c]
    1b85:	31 c0                	xor    ax,ax
    1b87:	8b 56 06             	mov    dx,WORD PTR [bp+0x6]
    1b8a:	89 57 0e             	mov    WORD PTR [bx+0xe],dx
    1b8d:	89 47 10             	mov    WORD PTR [bx+0x10],ax
    1b90:	89 47 12             	mov    WORD PTR [bx+0x12],ax
    1b93:	89 47 14             	mov    WORD PTR [bx+0x14],ax
    1b96:	89 ec                	mov    sp,bp
    1b98:	5d                   	pop    bp
    1b99:	5e                   	pop    si
    1b9a:	c3                   	ret    
    1b9b:	56                   	push   si
    1b9c:	57                   	push   di
    1b9d:	55                   	push   bp
    1b9e:	89 e5                	mov    bp,sp
    1ba0:	83 ec 08             	sub    sp,0x8
    1ba3:	8b 36 a2 18          	mov    si,WORD PTR ds:0x18a2
    1ba7:	83 7c 1c 00          	cmp    WORD PTR [si+0x1c],0x0
    1bab:	75 44                	jne    0x1bf1
    1bad:	b8 16 00             	mov    ax,0x16
    1bb0:	50                   	push   ax
    1bb1:	e8 e2 54             	call   0x7096
    1bb4:	89 44 1c             	mov    WORD PTR [si+0x1c],ax
    1bb7:	93                   	xchg   bx,ax
    1bb8:	c7 07 0e 33          	mov    WORD PTR [bx],0x330e
    1bbc:	c7 47 02 cd ab       	mov    WORD PTR [bx+0x2],0xabcd
    1bc1:	c7 47 04 34 12       	mov    WORD PTR [bx+0x4],0x1234
    1bc6:	c7 47 06 6d e6       	mov    WORD PTR [bx+0x6],0xe66d
    1bcb:	c7 47 08 ec de       	mov    WORD PTR [bx+0x8],0xdeec
    1bd0:	c7 47 0a 05 00       	mov    WORD PTR [bx+0xa],0x5
    1bd5:	c7 47 0c 0b 00       	mov    WORD PTR [bx+0xc],0xb
    1bda:	c7 47 0e 01 00       	mov    WORD PTR [bx+0xe],0x1
    1bdf:	c7 47 10 00 00       	mov    WORD PTR [bx+0x10],0x0
    1be4:	c7 47 12 00 00       	mov    WORD PTR [bx+0x12],0x0
    1be9:	c7 47 14 00 00       	mov    WORD PTR [bx+0x14],0x0
    1bee:	83 c4 02             	add    sp,0x2
    1bf1:	8b 74 1c             	mov    si,WORD PTR [si+0x1c]
    1bf4:	8d 7e f8             	lea    di,[bp-0x8]
    1bf7:	b8 51 58             	mov    ax,0x5851
    1bfa:	50                   	push   ax
    1bfb:	b8 2d f4             	mov    ax,0xf42d
    1bfe:	50                   	push   ax
    1bff:	b8 95 4c             	mov    ax,0x4c95
    1c02:	50                   	push   ax
    1c03:	b8 2d 7f             	mov    ax,0x7f2d
    1c06:	50                   	push   ax
    1c07:	ff 74 14             	push   WORD PTR [si+0x14]
    1c0a:	ff 74 12             	push   WORD PTR [si+0x12]
    1c0d:	ff 74 10             	push   WORD PTR [si+0x10]
    1c10:	ff 74 0e             	push   WORD PTR [si+0xe]
    1c13:	57                   	push   di
    1c14:	e8 0c 98             	call   0xb423
    1c17:	83 c4 12             	add    sp,0x12
    1c1a:	8b 46 f8             	mov    ax,WORD PTR [bp-0x8]
    1c1d:	8b 56 fa             	mov    dx,WORD PTR [bp-0x6]
    1c20:	8b 4e fc             	mov    cx,WORD PTR [bp-0x4]
    1c23:	8b 5e fe             	mov    bx,WORD PTR [bp-0x2]
    1c26:	83 c0 01             	add    ax,0x1
    1c29:	83 d2 00             	adc    dx,0x0
    1c2c:	83 d1 00             	adc    cx,0x0
    1c2f:	83 d3 00             	adc    bx,0x0
    1c32:	89 44 0e             	mov    WORD PTR [si+0xe],ax
    1c35:	89 54 10             	mov    WORD PTR [si+0x10],dx
    1c38:	89 4c 12             	mov    WORD PTR [si+0x12],cx
    1c3b:	89 5c 14             	mov    WORD PTR [si+0x14],bx
    1c3e:	be 20 00             	mov    si,0x20
    1c41:	56                   	push   si
    1c42:	53                   	push   bx
    1c43:	51                   	push   cx
    1c44:	52                   	push   dx
    1c45:	50                   	push   ax
    1c46:	57                   	push   di
    1c47:	e8 f0 98             	call   0xb53a
    1c4a:	83 c4 0c             	add    sp,0xc
    1c4d:	8b 46 f8             	mov    ax,WORD PTR [bp-0x8]
    1c50:	80 e4 7f             	and    ah,0x7f
    1c53:	89 ec                	mov    sp,bp
    1c55:	5d                   	pop    bp
    1c56:	5f                   	pop    di
    1c57:	5e                   	pop    si
    1c58:	c3                   	ret    
    1c59:	56                   	push   si
    1c5a:	57                   	push   di
    1c5b:	55                   	push   bp
    1c5c:	89 e5                	mov    bp,sp
    1c5e:	8b 76 08             	mov    si,WORD PTR [bp+0x8]
    1c61:	8b 7e 0a             	mov    di,WORD PTR [bp+0xa]
    1c64:	8b 05                	mov    ax,WORD PTR [di]
    1c66:	21 c0                	and    ax,ax
    1c68:	74 08                	je     0x1c72
    1c6a:	50                   	push   ax
    1c6b:	56                   	push   si
    1c6c:	e8 ea ff             	call   0x1c59
    1c6f:	83 c4 04             	add    sp,0x4
    1c72:	89 7e 0a             	mov    WORD PTR [bp+0xa],di
    1c75:	89 76 08             	mov    WORD PTR [bp+0x8],si
    1c78:	89 ec                	mov    sp,bp
    1c7a:	5d                   	pop    bp
    1c7b:	5f                   	pop    di
    1c7c:	5e                   	pop    si
    1c7d:	e9 29 fb             	jmp    0x17a9
    1c80:	56                   	push   si
    1c81:	57                   	push   di
    1c82:	06                   	push   es
    1c83:	55                   	push   bp
    1c84:	89 e5                	mov    bp,sp
    1c86:	1e                   	push   ds
    1c87:	8b 76 0a             	mov    si,WORD PTR [bp+0xa]
    1c8a:	39 36 a2 18          	cmp    WORD PTR ds:0x18a2,si
    1c8e:	75 03                	jne    0x1c93
    1c90:	e9 da 00             	jmp    0x1d6d
    1c93:	8b 5c 12             	mov    bx,WORD PTR [si+0x12]
    1c96:	21 db                	and    bx,bx
    1c98:	74 3f                	je     0x1cd9
    1c9a:	83 7f 06 00          	cmp    WORD PTR [bx+0x6],0x0
    1c9e:	74 28                	je     0x1cc8
    1ca0:	31 c0                	xor    ax,ax
    1ca2:	8b 5c 12             	mov    bx,WORD PTR [si+0x12]
    1ca5:	8b 7f 06             	mov    di,WORD PTR [bx+0x6]
    1ca8:	89 c3                	mov    bx,ax
    1caa:	8b 19                	mov    bx,WORD PTR [bx+di]
    1cac:	21 db                	and    bx,bx
    1cae:	74 03                	je     0x1cb3
    1cb0:	e9 c1 00             	jmp    0x1d74
    1cb3:	83 c0 02             	add    ax,0x2
    1cb6:	83 f8 20             	cmp    ax,0x20
    1cb9:	75 e7                	jne    0x1ca2
    1cbb:	8b 5c 12             	mov    bx,WORD PTR [si+0x12]
    1cbe:	ff 77 06             	push   WORD PTR [bx+0x6]
    1cc1:	56                   	push   si
    1cc2:	e8 e4 fa             	call   0x17a9
    1cc5:	83 c4 04             	add    sp,0x4
    1cc8:	8b 5c 12             	mov    bx,WORD PTR [si+0x12]
    1ccb:	8b 07                	mov    ax,WORD PTR [bx]
    1ccd:	21 c0                	and    ax,ax
    1ccf:	74 08                	je     0x1cd9
    1cd1:	50                   	push   ax
    1cd2:	56                   	push   si
    1cd3:	e8 d3 fa             	call   0x17a9
    1cd6:	83 c4 04             	add    sp,0x4
    1cd9:	8b 44 0a             	mov    ax,WORD PTR [si+0xa]
    1cdc:	21 c0                	and    ax,ax
    1cde:	74 08                	je     0x1ce8
    1ce0:	50                   	push   ax
    1ce1:	56                   	push   si
    1ce2:	e8 c4 fa             	call   0x17a9
    1ce5:	83 c4 04             	add    sp,0x4
    1ce8:	8b 44 12             	mov    ax,WORD PTR [si+0x12]
    1ceb:	21 c0                	and    ax,ax
    1ced:	74 08                	je     0x1cf7
    1cef:	50                   	push   ax
    1cf0:	56                   	push   si
    1cf1:	e8 b5 fa             	call   0x17a9
    1cf4:	83 c4 04             	add    sp,0x4
    1cf7:	8b 44 1c             	mov    ax,WORD PTR [si+0x1c]
    1cfa:	21 c0                	and    ax,ax
    1cfc:	74 08                	je     0x1d06
    1cfe:	50                   	push   ax
    1cff:	56                   	push   si
    1d00:	e8 a6 fa             	call   0x17a9
    1d03:	83 c4 04             	add    sp,0x4
    1d06:	8b 44 1e             	mov    ax,WORD PTR [si+0x1e]
    1d09:	21 c0                	and    ax,ax
    1d0b:	74 08                	je     0x1d15
    1d0d:	50                   	push   ax
    1d0e:	56                   	push   si
    1d0f:	e8 97 fa             	call   0x17a9
    1d12:	83 c4 04             	add    sp,0x4
    1d15:	8b 44 20             	mov    ax,WORD PTR [si+0x20]
    1d18:	21 c0                	and    ax,ax
    1d1a:	74 08                	je     0x1d24
    1d1c:	50                   	push   ax
    1d1d:	56                   	push   si
    1d1e:	e8 88 fa             	call   0x17a9
    1d21:	83 c4 04             	add    sp,0x4
    1d24:	8b 44 2e             	mov    ax,WORD PTR [si+0x2e]
    1d27:	21 c0                	and    ax,ax
    1d29:	74 08                	je     0x1d33
    1d2b:	50                   	push   ax
    1d2c:	56                   	push   si
    1d2d:	e8 79 fa             	call   0x17a9
    1d30:	83 c4 04             	add    sp,0x4
    1d33:	8b 44 2c             	mov    ax,WORD PTR [si+0x2c]
    1d36:	21 c0                	and    ax,ax
    1d38:	74 08                	je     0x1d42
    1d3a:	50                   	push   ax
    1d3b:	56                   	push   si
    1d3c:	e8 6a fa             	call   0x17a9
    1d3f:	83 c4 04             	add    sp,0x4
    1d42:	8b 44 1a             	mov    ax,WORD PTR [si+0x1a]
    1d45:	21 c0                	and    ax,ax
    1d47:	74 08                	je     0x1d51
    1d49:	50                   	push   ax
    1d4a:	56                   	push   si
    1d4b:	e8 5b fa             	call   0x17a9
    1d4e:	83 c4 04             	add    sp,0x4
    1d51:	83 7c 0c 00          	cmp    WORD PTR [si+0xc],0x0
    1d55:	74 16                	je     0x1d6d
    1d57:	56                   	push   si
    1d58:	ff 54 14             	call   WORD PTR [si+0x14]
    1d5b:	8b 44 24             	mov    ax,WORD PTR [si+0x24]
    1d5e:	83 c4 02             	add    sp,0x2
    1d61:	21 c0                	and    ax,ax
    1d63:	74 08                	je     0x1d6d
    1d65:	50                   	push   ax
    1d66:	56                   	push   si
    1d67:	e8 ef fe             	call   0x1c59
    1d6a:	83 c4 04             	add    sp,0x4
    1d6d:	89 ec                	mov    sp,bp
    1d6f:	5d                   	pop    bp
    1d70:	07                   	pop    es
    1d71:	5f                   	pop    di
    1d72:	5e                   	pop    si
    1d73:	c3                   	ret    
    1d74:	89 46 fe             	mov    WORD PTR [bp-0x2],ax
    1d77:	8e 07                	mov    es,WORD PTR [bx]
    1d79:	53                   	push   bx
    1d7a:	56                   	push   si
    1d7b:	e8 2b fa             	call   0x17a9
    1d7e:	83 c4 04             	add    sp,0x4
    1d81:	8c c3                	mov    bx,es
    1d83:	8b 46 fe             	mov    ax,WORD PTR [bp-0x2]
    1d86:	e9 23 ff             	jmp    0x1cac
    1d89:	89 e3                	mov    bx,sp
    1d8b:	8b 5f 02             	mov    bx,WORD PTR [bx+0x2]
    1d8e:	8a 47 06             	mov    al,BYTE PTR [bx+0x6]
    1d91:	83 e0 09             	and    ax,0x9
    1d94:	83 f8 09             	cmp    ax,0x9
    1d97:	75 03                	jne    0x1d9c
    1d99:	e9 69 e7             	jmp    0x505
    1d9c:	31 c0                	xor    ax,ax
    1d9e:	c3                   	ret    
    1d9f:	56                   	push   si
    1da0:	57                   	push   di
    1da1:	06                   	push   es
    1da2:	55                   	push   bp
    1da3:	89 e5                	mov    bp,sp
    1da5:	1e                   	push   ds
    1da6:	8b 76 0a             	mov    si,WORD PTR [bp+0xa]
    1da9:	8b 7e 0c             	mov    di,WORD PTR [bp+0xc]
    1dac:	21 f6                	and    si,si
    1dae:	74 0d                	je     0x1dbd
    1db0:	83 7c 0c 00          	cmp    WORD PTR [si+0xc],0x0
    1db4:	75 07                	jne    0x1dbd
    1db6:	56                   	push   si
    1db7:	e8 b3 ea             	call   0x86d
    1dba:	83 c4 02             	add    sp,0x2
    1dbd:	81 ff 3e 10          	cmp    di,0x103e
    1dc1:	75 1c                	jne    0x1ddf
    1dc3:	8b 7c 02             	mov    di,WORD PTR [si+0x2]
    1dc6:	c7 45 02 00 00       	mov    WORD PTR [di+0x2],0x0
    1dcb:	8b 45 06             	mov    ax,WORD PTR [di+0x6]
    1dce:	89 c2                	mov    dx,ax
    1dd0:	83 e2 20             	and    dx,0x20
    1dd3:	8e c2                	mov    es,dx
    1dd5:	74 1e                	je     0x1df5
    1dd7:	b8 ff ff             	mov    ax,0xffff
    1dda:	8e c0                	mov    es,ax
    1ddc:	e9 e0 00             	jmp    0x1ebf
    1ddf:	81 ff 2c 10          	cmp    di,0x102c
    1de3:	75 05                	jne    0x1dea
    1de5:	8b 7c 04             	mov    di,WORD PTR [si+0x4]
    1de8:	eb dc                	jmp    0x1dc6
    1dea:	81 ff 1a 10          	cmp    di,0x101a
    1dee:	75 d6                	jne    0x1dc6
    1df0:	8b 7c 06             	mov    di,WORD PTR [si+0x6]
    1df3:	eb d1                	jmp    0x1dc6
    1df5:	a8 04                	test   al,0x4
    1df7:	74 03                	je     0x1dfc
    1df9:	e9 96 00             	jmp    0x1e92
    1dfc:	a8 10                	test   al,0x10
    1dfe:	75 0a                	jne    0x1e0a
    1e00:	c7 04 06 00          	mov    WORD PTR [si],0x6
    1e04:	83 c8 40             	or     ax,0x40
    1e07:	e9 82 00             	jmp    0x1e8c
    1e0a:	a8 08                	test   al,0x8
    1e0c:	74 16                	je     0x1e24
    1e0e:	57                   	push   di
    1e0f:	56                   	push   si
    1e10:	e8 95 e6             	call   0x4a8
    1e13:	83 c4 04             	add    sp,0x4
    1e16:	21 c0                	and    ax,ax
    1e18:	75 bd                	jne    0x1dd7
    1e1a:	80 65 06 f7          	and    BYTE PTR [di+0x6],0xf7
    1e1e:	8c 45 04             	mov    WORD PTR [di+0x4],es
    1e21:	8c 45 0e             	mov    WORD PTR [di+0xe],es
    1e24:	80 4d 06 04          	or     BYTE PTR [di+0x6],0x4
    1e28:	83 7d 0a 00          	cmp    WORD PTR [di+0xa],0x0
    1e2c:	75 08                	jne    0x1e36
    1e2e:	57                   	push   di
    1e2f:	56                   	push   si
    1e30:	e8 37 f8             	call   0x166a
    1e33:	83 c4 04             	add    sp,0x4
    1e36:	8b 55 06             	mov    dx,WORD PTR [di+0x6]
    1e39:	f6 c2 03             	test   dl,0x3
    1e3c:	74 2c                	je     0x1e6a
    1e3e:	89 56 fe             	mov    WORD PTR [bp-0x2],dx
    1e41:	c7 45 06 01 00       	mov    WORD PTR [di+0x6],0x1
    1e46:	b8 89 1d             	mov    ax,0x1d89
    1e49:	50                   	push   ax
    1e4a:	ff 36 50 10          	push   WORD PTR ds:0x1050
    1e4e:	e8 9a f5             	call   0x13eb
    1e51:	8b 56 fe             	mov    dx,WORD PTR [bp-0x2]
    1e54:	89 55 06             	mov    WORD PTR [di+0x6],dx
    1e57:	83 e2 09             	and    dx,0x9
    1e5a:	83 c4 04             	add    sp,0x4
    1e5d:	83 fa 09             	cmp    dx,0x9
    1e60:	75 08                	jne    0x1e6a
    1e62:	57                   	push   di
    1e63:	56                   	push   si
    1e64:	e8 78 e4             	call   0x2df
    1e67:	83 c4 04             	add    sp,0x4
    1e6a:	8b 45 0a             	mov    ax,WORD PTR [di+0xa]
    1e6d:	89 05                	mov    WORD PTR [di],ax
    1e6f:	ff 75 0c             	push   WORD PTR [di+0xc]
    1e72:	50                   	push   ax
    1e73:	ff 75 12             	push   WORD PTR [di+0x12]
    1e76:	56                   	push   si
    1e77:	ff 55 14             	call   WORD PTR [di+0x14]
    1e7a:	89 45 02             	mov    WORD PTR [di+0x2],ax
    1e7d:	83 c4 08             	add    sp,0x8
    1e80:	21 c0                	and    ax,ax
    1e82:	7f 3b                	jg     0x1ebf
    1e84:	8b 45 06             	mov    ax,WORD PTR [di+0x6]
    1e87:	75 3f                	jne    0x1ec8
    1e89:	83 c8 20             	or     ax,0x20
    1e8c:	89 45 06             	mov    WORD PTR [di+0x6],ax
    1e8f:	e9 45 ff             	jmp    0x1dd7
    1e92:	8b 45 1c             	mov    ax,WORD PTR [di+0x1c]
    1e95:	21 c0                	and    ax,ax
    1e97:	74 8f                	je     0x1e28
    1e99:	8d 55 24             	lea    dx,[di+0x24]
    1e9c:	39 d0                	cmp    ax,dx
    1e9e:	74 08                	je     0x1ea8
    1ea0:	50                   	push   ax
    1ea1:	56                   	push   si
    1ea2:	e8 04 f9             	call   0x17a9
    1ea5:	83 c4 04             	add    sp,0x4
    1ea8:	c7 45 1c 00 00       	mov    WORD PTR [di+0x1c],0x0
    1ead:	8b 45 22             	mov    ax,WORD PTR [di+0x22]
    1eb0:	89 45 02             	mov    WORD PTR [di+0x2],ax
    1eb3:	21 c0                	and    ax,ax
    1eb5:	75 03                	jne    0x1eba
    1eb7:	e9 6e ff             	jmp    0x1e28
    1eba:	8b 45 20             	mov    ax,WORD PTR [di+0x20]
    1ebd:	89 05                	mov    WORD PTR [di],ax
    1ebf:	8c c0                	mov    ax,es
    1ec1:	89 ec                	mov    sp,bp
    1ec3:	5d                   	pop    bp
    1ec4:	07                   	pop    es
    1ec5:	5f                   	pop    di
    1ec6:	5e                   	pop    si
    1ec7:	c3                   	ret    
    1ec8:	c7 45 02 00 00       	mov    WORD PTR [di+0x2],0x0
    1ecd:	e9 34 ff             	jmp    0x1e04
    1ed0:	56                   	push   si
    1ed1:	55                   	push   bp
    1ed2:	89 e5                	mov    bp,sp
    1ed4:	8b 76 08             	mov    si,WORD PTR [bp+0x8]
    1ed7:	31 c0                	xor    ax,ax
    1ed9:	50                   	push   ax
    1eda:	50                   	push   ax
    1edb:	50                   	push   ax
    1edc:	56                   	push   si
    1edd:	ff 76 06             	push   WORD PTR [bp+0x6]
    1ee0:	e8 34 ee             	call   0xd17
    1ee3:	83 c4 0a             	add    sp,0xa
    1ee6:	89 76 06             	mov    WORD PTR [bp+0x6],si
    1ee9:	89 ec                	mov    sp,bp
    1eeb:	5d                   	pop    bp
    1eec:	5e                   	pop    si
    1eed:	e9 15 41             	jmp    0x6005
    1ef0:	55                   	push   bp
    1ef1:	89 e5                	mov    bp,sp
    1ef3:	ff 76 04             	push   WORD PTR [bp+0x4]
    1ef6:	ff 36 a2 18          	push   WORD PTR ds:0x18a2
    1efa:	e8 d3 ff             	call   0x1ed0
    1efd:	83 c4 04             	add    sp,0x4
    1f00:	89 ec                	mov    sp,bp
    1f02:	5d                   	pop    bp
    1f03:	c3                   	ret    
    1f04:	56                   	push   si
    1f05:	57                   	push   di
    1f06:	55                   	push   bp
    1f07:	89 e5                	mov    bp,sp
    1f09:	8b 7e 08             	mov    di,WORD PTR [bp+0x8]
    1f0c:	8b 76 0a             	mov    si,WORD PTR [bp+0xa]
    1f0f:	21 ff                	and    di,di
    1f11:	74 0d                	je     0x1f20
    1f13:	83 7d 0c 00          	cmp    WORD PTR [di+0xc],0x0
    1f17:	75 07                	jne    0x1f20
    1f19:	57                   	push   di
    1f1a:	e8 50 e9             	call   0x86d
    1f1d:	83 c4 02             	add    sp,0x2
    1f20:	81 fe 3e 10          	cmp    si,0x103e
    1f24:	75 23                	jne    0x1f49
    1f26:	8b 75 02             	mov    si,WORD PTR [di+0x2]
    1f29:	56                   	push   si
    1f2a:	57                   	push   di
    1f2b:	e8 71 fe             	call   0x1d9f
    1f2e:	83 c4 04             	add    sp,0x4
    1f31:	21 c0                	and    ax,ax
    1f33:	75 2a                	jne    0x1f5f
    1f35:	ff 4c 02             	dec    WORD PTR [si+0x2]
    1f38:	8b 1c                	mov    bx,WORD PTR [si]
    1f3a:	8d 47 01             	lea    ax,[bx+0x1]
    1f3d:	89 04                	mov    WORD PTR [si],ax
    1f3f:	8a 07                	mov    al,BYTE PTR [bx]
    1f41:	30 e4                	xor    ah,ah
    1f43:	89 ec                	mov    sp,bp
    1f45:	5d                   	pop    bp
    1f46:	5f                   	pop    di
    1f47:	5e                   	pop    si
    1f48:	c3                   	ret    
    1f49:	81 fe 2c 10          	cmp    si,0x102c
    1f4d:	75 05                	jne    0x1f54
    1f4f:	8b 75 04             	mov    si,WORD PTR [di+0x4]
    1f52:	eb d5                	jmp    0x1f29
    1f54:	81 fe 1a 10          	cmp    si,0x101a
    1f58:	75 cf                	jne    0x1f29
    1f5a:	8b 75 06             	mov    si,WORD PTR [di+0x6]
    1f5d:	eb ca                	jmp    0x1f29
    1f5f:	b8 ff ff             	mov    ax,0xffff
    1f62:	eb df                	jmp    0x1f43
    1f64:	55                   	push   bp
    1f65:	89 e5                	mov    bp,sp
    1f67:	ff 76 04             	push   WORD PTR [bp+0x4]
    1f6a:	ff 36 a2 18          	push   WORD PTR ds:0x18a2
    1f6e:	e8 93 ff             	call   0x1f04
    1f71:	83 c4 04             	add    sp,0x4
    1f74:	89 ec                	mov    sp,bp
    1f76:	5d                   	pop    bp
    1f77:	c3                   	ret    
    1f78:	55                   	push   bp
    1f79:	89 e5                	mov    bp,sp
    1f7b:	c7 06 24 1b 00 00    	mov    WORD PTR ds:0x1b24,0x0
    1f81:	ff 76 06             	push   WORD PTR [bp+0x6]
    1f84:	e8 c5 ba             	call   0xda4c
    1f87:	83 c4 02             	add    sp,0x2
    1f8a:	83 f8 ff             	cmp    ax,0xffff
    1f8d:	75 0d                	jne    0x1f9c
    1f8f:	8b 16 24 1b          	mov    dx,WORD PTR ds:0x1b24
    1f93:	21 d2                	and    dx,dx
    1f95:	74 05                	je     0x1f9c
    1f97:	8b 5e 04             	mov    bx,WORD PTR [bp+0x4]
    1f9a:	89 17                	mov    WORD PTR [bx],dx
    1f9c:	89 ec                	mov    sp,bp
    1f9e:	5d                   	pop    bp
    1f9f:	c3                   	ret    
    1fa0:	56                   	push   si
    1fa1:	57                   	push   di
    1fa2:	55                   	push   bp
    1fa3:	89 e5                	mov    bp,sp
    1fa5:	83 ec 06             	sub    sp,0x6
    1fa8:	8b 7e 08             	mov    di,WORD PTR [bp+0x8]
    1fab:	8b 36 a2 18          	mov    si,WORD PTR ds:0x18a2
    1faf:	21 f6                	and    si,si
    1fb1:	74 0d                	je     0x1fc0
    1fb3:	83 7c 0c 00          	cmp    WORD PTR [si+0xc],0x0
    1fb7:	75 07                	jne    0x1fc0
    1fb9:	56                   	push   si
    1fba:	e8 b0 e8             	call   0x86d
    1fbd:	83 c4 02             	add    sp,0x2
    1fc0:	81 ff 3e 10          	cmp    di,0x103e
    1fc4:	74 03                	je     0x1fc9
    1fc6:	e9 cf 00             	jmp    0x2098
    1fc9:	8b 7c 02             	mov    di,WORD PTR [si+0x2]
    1fcc:	83 7e 0c 02          	cmp    WORD PTR [bp+0xc],0x2
    1fd0:	74 1c                	je     0x1fee
    1fd2:	83 7e 0c 02          	cmp    WORD PTR [bp+0xc],0x2
    1fd6:	72 03                	jb     0x1fdb
    1fd8:	e9 58 01             	jmp    0x2133
    1fdb:	80 7e 0f 80          	cmp    BYTE PTR [bp+0xf],0x80
    1fdf:	19 c0                	sbb    ax,ax
    1fe1:	40                   	inc    ax
    1fe2:	89 46 fa             	mov    WORD PTR [bp-0x6],ax
    1fe5:	80 7e fa 00          	cmp    BYTE PTR [bp-0x6],0x0
    1fe9:	74 03                	je     0x1fee
    1feb:	e9 45 01             	jmp    0x2133
    1fee:	57                   	push   di
    1fef:	56                   	push   si
    1ff0:	e8 b5 e4             	call   0x4a8
    1ff3:	8b 45 1c             	mov    ax,WORD PTR [di+0x1c]
    1ff6:	83 c4 04             	add    sp,0x4
    1ff9:	21 c0                	and    ax,ax
    1ffb:	74 14                	je     0x2011
    1ffd:	8d 55 24             	lea    dx,[di+0x24]
    2000:	39 d0                	cmp    ax,dx
    2002:	74 08                	je     0x200c
    2004:	50                   	push   ax
    2005:	56                   	push   si
    2006:	e8 a0 f7             	call   0x17a9
    2009:	83 c4 04             	add    sp,0x4
    200c:	c7 45 1c 00 00       	mov    WORD PTR [di+0x1c],0x0
    2011:	c7 45 0e 00 00       	mov    WORD PTR [di+0xe],0x0
    2016:	c7 45 02 00 00       	mov    WORD PTR [di+0x2],0x0
    201b:	f6 45 06 80          	test   BYTE PTR [di+0x6],0x80
    201f:	74 0a                	je     0x202b
    2021:	ff 75 0a             	push   WORD PTR [di+0xa]
    2024:	56                   	push   si
    2025:	e8 81 f7             	call   0x17a9
    2028:	83 c4 04             	add    sp,0x4
    202b:	81 65 06 5c f3       	and    WORD PTR [di+0x6],0xf35c
    2030:	83 7e 0c 02          	cmp    WORD PTR [bp+0xc],0x2
    2034:	75 03                	jne    0x2039
    2036:	e9 e6 00             	jmp    0x211f
    2039:	8d 46 fe             	lea    ax,[bp-0x2]
    203c:	50                   	push   ax
    203d:	8d 46 fc             	lea    ax,[bp-0x4]
    2040:	50                   	push   ax
    2041:	57                   	push   di
    2042:	56                   	push   si
    2043:	e8 f4 f5             	call   0x163a
    2046:	09 45 06             	or     WORD PTR [di+0x6],ax
    2049:	83 c4 08             	add    sp,0x8
    204c:	83 7e 0e 00          	cmp    WORD PTR [bp+0xe],0x0
    2050:	75 61                	jne    0x20b3
    2052:	8b 46 fc             	mov    ax,WORD PTR [bp-0x4]
    2055:	89 46 0e             	mov    WORD PTR [bp+0xe],ax
    2058:	ff 76 0e             	push   WORD PTR [bp+0xe]
    205b:	e8 38 50             	call   0x7096
    205e:	89 46 0a             	mov    WORD PTR [bp+0xa],ax
    2061:	83 c4 02             	add    sp,0x2
    2064:	8b 56 0e             	mov    dx,WORD PTR [bp+0xe]
    2067:	21 c0                	and    ax,ax
    2069:	74 03                	je     0x206e
    206b:	e9 a8 00             	jmp    0x2116
    206e:	8b 56 fc             	mov    dx,WORD PTR [bp-0x4]
    2071:	3b 56 0e             	cmp    dx,WORD PTR [bp+0xe]
    2074:	74 03                	je     0x2079
    2076:	e9 86 00             	jmp    0x20ff
    2079:	b8 ff ff             	mov    ax,0xffff
    207c:	80 4d 06 02          	or     BYTE PTR [di+0x6],0x2
    2080:	c7 45 04 00 00       	mov    WORD PTR [di+0x4],0x0
    2085:	8d 55 27             	lea    dx,[di+0x27]
    2088:	89 15                	mov    WORD PTR [di],dx
    208a:	89 55 0a             	mov    WORD PTR [di+0xa],dx
    208d:	c7 45 0c 01 00       	mov    WORD PTR [di+0xc],0x1
    2092:	89 ec                	mov    sp,bp
    2094:	5d                   	pop    bp
    2095:	5f                   	pop    di
    2096:	5e                   	pop    si
    2097:	c3                   	ret    
    2098:	81 ff 2c 10          	cmp    di,0x102c
    209c:	75 06                	jne    0x20a4
    209e:	8b 7c 04             	mov    di,WORD PTR [si+0x4]
    20a1:	e9 28 ff             	jmp    0x1fcc
    20a4:	81 ff 1a 10          	cmp    di,0x101a
    20a8:	74 03                	je     0x20ad
    20aa:	e9 1f ff             	jmp    0x1fcc
    20ad:	8b 7c 06             	mov    di,WORD PTR [si+0x6]
    20b0:	e9 19 ff             	jmp    0x1fcc
    20b3:	83 7e 0a 00          	cmp    WORD PTR [bp+0xa],0x0
    20b7:	74 9f                	je     0x2058
    20b9:	83 7c 0c 00          	cmp    WORD PTR [si+0xc],0x0
    20bd:	75 07                	jne    0x20c6
    20bf:	56                   	push   si
    20c0:	e8 aa e7             	call   0x86d
    20c3:	83 c4 02             	add    sp,0x2
    20c6:	83 7e 0c 01          	cmp    WORD PTR [bp+0xc],0x1
    20ca:	75 04                	jne    0x20d0
    20cc:	80 4d 06 01          	or     BYTE PTR [di+0x6],0x1
    20d0:	8b 46 0a             	mov    ax,WORD PTR [bp+0xa]
    20d3:	89 05                	mov    WORD PTR [di],ax
    20d5:	89 45 0a             	mov    WORD PTR [di+0xa],ax
    20d8:	8b 46 0e             	mov    ax,WORD PTR [bp+0xe]
    20db:	89 45 0c             	mov    WORD PTR [di+0xc],ax
    20de:	8b 55 06             	mov    dx,WORD PTR [di+0x6]
    20e1:	89 d0                	mov    ax,dx
    20e3:	83 e0 08             	and    ax,0x8
    20e6:	74 45                	je     0x212d
    20e8:	92                   	xchg   dx,ax
    20e9:	83 e0 01             	and    ax,0x1
    20ec:	74 36                	je     0x2124
    20ee:	c7 45 04 00 00       	mov    WORD PTR [di+0x4],0x0
    20f3:	8b 46 0e             	mov    ax,WORD PTR [bp+0xe]
    20f6:	f7 d8                	neg    ax
    20f8:	89 45 0e             	mov    WORD PTR [di+0xe],ax
    20fb:	31 c0                	xor    ax,ax
    20fd:	eb 93                	jmp    0x2092
    20ff:	52                   	push   dx
    2100:	89 56 fa             	mov    WORD PTR [bp-0x6],dx
    2103:	e8 90 4f             	call   0x7096
    2106:	89 46 0a             	mov    WORD PTR [bp+0xa],ax
    2109:	83 c4 02             	add    sp,0x2
    210c:	21 c0                	and    ax,ax
    210e:	8b 56 fa             	mov    dx,WORD PTR [bp-0x6]
    2111:	75 03                	jne    0x2116
    2113:	e9 63 ff             	jmp    0x2079
    2116:	80 4d 06 80          	or     BYTE PTR [di+0x6],0x80
    211a:	89 56 0e             	mov    WORD PTR [bp+0xe],dx
    211d:	eb 9a                	jmp    0x20b9
    211f:	31 c0                	xor    ax,ax
    2121:	e9 58 ff             	jmp    0x207c
    2124:	8b 56 0e             	mov    dx,WORD PTR [bp+0xe]
    2127:	89 55 04             	mov    WORD PTR [di+0x4],dx
    212a:	e9 65 ff             	jmp    0x2092
    212d:	89 45 04             	mov    WORD PTR [di+0x4],ax
    2130:	e9 5f ff             	jmp    0x2092
    2133:	b8 ff ff             	mov    ax,0xffff
    2136:	e9 59 ff             	jmp    0x2092
    2139:	55                   	push   bp
    213a:	89 e5                	mov    bp,sp
    213c:	83 ec 3a             	sub    sp,0x3a
    213f:	8b 46 06             	mov    ax,WORD PTR [bp+0x6]
    2142:	c7 46 cc 08 02       	mov    WORD PTR [bp-0x34],0x208
    2147:	89 46 c6             	mov    WORD PTR [bp-0x3a],ax
    214a:	89 46 d0             	mov    WORD PTR [bp-0x30],ax
    214d:	c7 46 ca ff 7f       	mov    WORD PTR [bp-0x36],0x7fff
    2152:	c7 46 d2 ff 7f       	mov    WORD PTR [bp-0x2e],0x7fff
    2157:	c7 46 ce ff ff       	mov    WORD PTR [bp-0x32],0xffff
    215c:	8d 46 0a             	lea    ax,[bp+0xa]
    215f:	50                   	push   ax
    2160:	ff 76 08             	push   WORD PTR [bp+0x8]
    2163:	8d 46 c6             	lea    ax,[bp-0x3a]
    2166:	50                   	push   ax
    2167:	ff 76 04             	push   WORD PTR [bp+0x4]
    216a:	e8 40 02             	call   0x23ad
    216d:	8b 5e c6             	mov    bx,WORD PTR [bp-0x3a]
    2170:	c6 07 00             	mov    BYTE PTR [bx],0x0
    2173:	83 c4 08             	add    sp,0x8
    2176:	89 ec                	mov    sp,bp
    2178:	5d                   	pop    bp
    2179:	c3                   	ret    
    217a:	55                   	push   bp
    217b:	89 e5                	mov    bp,sp
    217d:	83 ec 3a             	sub    sp,0x3a
    2180:	8b 46 04             	mov    ax,WORD PTR [bp+0x4]
    2183:	c7 46 cc 08 02       	mov    WORD PTR [bp-0x34],0x208
    2188:	89 46 c6             	mov    WORD PTR [bp-0x3a],ax
    218b:	89 46 d0             	mov    WORD PTR [bp-0x30],ax
    218e:	c7 46 ca ff 7f       	mov    WORD PTR [bp-0x36],0x7fff
    2193:	c7 46 d2 ff 7f       	mov    WORD PTR [bp-0x2e],0x7fff
    2198:	c7 46 ce ff ff       	mov    WORD PTR [bp-0x32],0xffff
    219d:	8d 46 08             	lea    ax,[bp+0x8]
    21a0:	50                   	push   ax
    21a1:	ff 76 06             	push   WORD PTR [bp+0x6]
    21a4:	8d 46 c6             	lea    ax,[bp-0x3a]
    21a7:	50                   	push   ax
    21a8:	ff 36 a2 18          	push   WORD PTR ds:0x18a2
    21ac:	e8 fe 01             	call   0x23ad
    21af:	8b 5e c6             	mov    bx,WORD PTR [bp-0x3a]
    21b2:	c6 07 00             	mov    BYTE PTR [bx],0x0
    21b5:	83 c4 08             	add    sp,0x8
    21b8:	89 ec                	mov    sp,bp
    21ba:	5d                   	pop    bp
    21bb:	c3                   	ret    
    21bc:	55                   	push   bp
    21bd:	89 e5                	mov    bp,sp
    21bf:	83 ec 3a             	sub    sp,0x3a
    21c2:	8b 46 04             	mov    ax,WORD PTR [bp+0x4]
    21c5:	c7 46 cc 04 02       	mov    WORD PTR [bp-0x34],0x204
    21ca:	89 46 c6             	mov    WORD PTR [bp-0x3a],ax
    21cd:	89 46 d0             	mov    WORD PTR [bp-0x30],ax
    21d0:	50                   	push   ax
    21d1:	e8 bd 01             	call   0x2391
    21d4:	89 46 c8             	mov    WORD PTR [bp-0x38],ax
    21d7:	89 46 d2             	mov    WORD PTR [bp-0x2e],ax
    21da:	c7 46 da 8c 22       	mov    WORD PTR [bp-0x26],0x228c
    21df:	c7 46 e2 00 00       	mov    WORD PTR [bp-0x1e],0x0
    21e4:	c7 46 ee 00 00       	mov    WORD PTR [bp-0x12],0x0
    21e9:	c7 46 ce ff ff       	mov    WORD PTR [bp-0x32],0xffff
    21ee:	8d 46 08             	lea    ax,[bp+0x8]
    21f1:	50                   	push   ax
    21f2:	ff 76 06             	push   WORD PTR [bp+0x6]
    21f5:	8d 46 c6             	lea    ax,[bp-0x3a]
    21f8:	50                   	push   ax
    21f9:	ff 36 a2 18          	push   WORD PTR ds:0x18a2
    21fd:	e8 f6 14             	call   0x36f6
    2200:	83 c4 0a             	add    sp,0xa
    2203:	89 ec                	mov    sp,bp
    2205:	5d                   	pop    bp
    2206:	c3                   	ret    
    2207:	55                   	push   bp
    2208:	89 e5                	mov    bp,sp
    220a:	83 ec 3a             	sub    sp,0x3a
    220d:	8b 46 06             	mov    ax,WORD PTR [bp+0x6]
    2210:	c7 46 cc 04 02       	mov    WORD PTR [bp-0x34],0x204
    2215:	89 46 c6             	mov    WORD PTR [bp-0x3a],ax
    2218:	89 46 d0             	mov    WORD PTR [bp-0x30],ax
    221b:	50                   	push   ax
    221c:	e8 72 01             	call   0x2391
    221f:	89 46 c8             	mov    WORD PTR [bp-0x38],ax
    2222:	89 46 d2             	mov    WORD PTR [bp-0x2e],ax
    2225:	c7 46 da 8c 22       	mov    WORD PTR [bp-0x26],0x228c
    222a:	c7 46 e2 00 00       	mov    WORD PTR [bp-0x1e],0x0
    222f:	c7 46 ee 00 00       	mov    WORD PTR [bp-0x12],0x0
    2234:	c7 46 ce ff ff       	mov    WORD PTR [bp-0x32],0xffff
    2239:	8d 46 0a             	lea    ax,[bp+0xa]
    223c:	50                   	push   ax
    223d:	ff 76 08             	push   WORD PTR [bp+0x8]
    2240:	8d 46 c6             	lea    ax,[bp-0x3a]
    2243:	50                   	push   ax
    2244:	ff 76 04             	push   WORD PTR [bp+0x4]
    2247:	e8 ac 14             	call   0x36f6
    224a:	83 c4 0a             	add    sp,0xa
    224d:	89 ec                	mov    sp,bp
    224f:	5d                   	pop    bp
    2250:	c3                   	ret    
    2251:	56                   	push   si
    2252:	57                   	push   di
    2253:	55                   	push   bp
    2254:	89 e5                	mov    bp,sp
    2256:	8b 76 0a             	mov    si,WORD PTR [bp+0xa]
    2259:	ff 76 0e             	push   WORD PTR [bp+0xe]
    225c:	ff 76 0c             	push   WORD PTR [bp+0xc]
    225f:	ff 74 08             	push   WORD PTR [si+0x8]
    2262:	ff 76 08             	push   WORD PTR [bp+0x8]
    2265:	e8 bd 5d             	call   0x8025
    2268:	83 c4 08             	add    sp,0x8
    226b:	21 c0                	and    ax,ax
    226d:	7c 17                	jl     0x2286
    226f:	99                   	cwd    
    2270:	8b 4c 2e             	mov    cx,WORD PTR [si+0x2e]
    2273:	8b 5c 30             	mov    bx,WORD PTR [si+0x30]
    2276:	01 c1                	add    cx,ax
    2278:	11 da                	adc    dx,bx
    227a:	89 4c 2e             	mov    WORD PTR [si+0x2e],cx
    227d:	89 54 30             	mov    WORD PTR [si+0x30],dx
    2280:	89 ec                	mov    sp,bp
    2282:	5d                   	pop    bp
    2283:	5f                   	pop    di
    2284:	5e                   	pop    si
    2285:	c3                   	ret    
    2286:	80 64 07 ef          	and    BYTE PTR [si+0x7],0xef
    228a:	eb f4                	jmp    0x2280
    228c:	31 c0                	xor    ax,ax
    228e:	c3                   	ret    
    228f:	56                   	push   si
    2290:	57                   	push   di
    2291:	06                   	push   es
    2292:	55                   	push   bp
    2293:	89 e5                	mov    bp,sp
    2295:	1e                   	push   ds
    2296:	8b 7e 0a             	mov    di,WORD PTR [bp+0xa]
    2299:	8b 76 0c             	mov    si,WORD PTR [bp+0xc]
    229c:	c4 4e 0e             	les    cx,DWORD PTR [bp+0xe]
    229f:	f6 44 07 01          	test   BYTE PTR [si+0x7],0x1
    22a3:	74 18                	je     0x22bd
    22a5:	89 4e fe             	mov    WORD PTR [bp-0x2],cx
    22a8:	b8 02 00             	mov    ax,0x2
    22ab:	50                   	push   ax
    22ac:	31 c0                	xor    ax,ax
    22ae:	50                   	push   ax
    22af:	50                   	push   ax
    22b0:	ff 74 08             	push   WORD PTR [si+0x8]
    22b3:	57                   	push   di
    22b4:	e8 a9 4d             	call   0x7060
    22b7:	83 c4 0a             	add    sp,0xa
    22ba:	8b 4e fe             	mov    cx,WORD PTR [bp-0x2]
    22bd:	80 64 07 ef          	and    BYTE PTR [si+0x7],0xef
    22c1:	8c 46 10             	mov    WORD PTR [bp+0x10],es
    22c4:	89 4e 0e             	mov    WORD PTR [bp+0xe],cx
    22c7:	8b 44 08             	mov    ax,WORD PTR [si+0x8]
    22ca:	89 46 0c             	mov    WORD PTR [bp+0xc],ax
    22cd:	89 7e 0a             	mov    WORD PTR [bp+0xa],di
    22d0:	89 ec                	mov    sp,bp
    22d2:	5d                   	pop    bp
    22d3:	07                   	pop    es
    22d4:	5f                   	pop    di
    22d5:	5e                   	pop    si
    22d6:	e9 db 3a             	jmp    0x5db4
    22d9:	56                   	push   si
    22da:	55                   	push   bp
    22db:	89 e5                	mov    bp,sp
    22dd:	8b 76 08             	mov    si,WORD PTR [bp+0x8]
    22e0:	ff 76 0e             	push   WORD PTR [bp+0xe]
    22e3:	ff 76 0c             	push   WORD PTR [bp+0xc]
    22e6:	ff 76 0a             	push   WORD PTR [bp+0xa]
    22e9:	ff 74 08             	push   WORD PTR [si+0x8]
    22ec:	ff 76 06             	push   WORD PTR [bp+0x6]
    22ef:	e8 6e 4d             	call   0x7060
    22f2:	83 c4 0a             	add    sp,0xa
    22f5:	83 f8 ff             	cmp    ax,0xffff
    22f8:	8b 4c 06             	mov    cx,WORD PTR [si+0x6]
    22fb:	75 10                	jne    0x230d
    22fd:	83 fa ff             	cmp    dx,0xffff
    2300:	75 0b                	jne    0x230d
    2302:	80 e5 ef             	and    ch,0xef
    2305:	89 4c 06             	mov    WORD PTR [si+0x6],cx
    2308:	89 ec                	mov    sp,bp
    230a:	5d                   	pop    bp
    230b:	5e                   	pop    si
    230c:	c3                   	ret    
    230d:	80 cd 10             	or     ch,0x10
    2310:	89 4c 06             	mov    WORD PTR [si+0x6],cx
    2313:	89 44 2e             	mov    WORD PTR [si+0x2e],ax
    2316:	89 54 30             	mov    WORD PTR [si+0x30],dx
    2319:	eb ed                	jmp    0x2308
    231b:	55                   	push   bp
    231c:	89 e5                	mov    bp,sp
    231e:	8b 5e 06             	mov    bx,WORD PTR [bp+0x6]
    2321:	8b 47 08             	mov    ax,WORD PTR [bx+0x8]
    2324:	89 46 06             	mov    WORD PTR [bp+0x6],ax
    2327:	5d                   	pop    bp
    2328:	e9 20 3d             	jmp    0x604b
    232b:	e9 3a 24             	jmp    0x4768
    232e:	89 e3                	mov    bx,sp
    2330:	56                   	push   si
    2331:	8b 77 02             	mov    si,WORD PTR [bx+0x2]
    2334:	8b 5f 04             	mov    bx,WORD PTR [bx+0x4]
    2337:	4b                   	dec    bx
    2338:	ac                   	lods   al,BYTE PTR ds:[si]
    2339:	43                   	inc    bx
    233a:	84 c0                	test   al,al
    233c:	74 04                	je     0x2342
    233e:	3a 07                	cmp    al,BYTE PTR [bx]
    2340:	74 f6                	je     0x2338
    2342:	8a 17                	mov    dl,BYTE PTR [bx]
    2344:	30 f6                	xor    dh,dh
    2346:	30 e4                	xor    ah,ah
    2348:	29 d0                	sub    ax,dx
    234a:	5e                   	pop    si
    234b:	c3                   	ret    
    234c:	55                   	push   bp
    234d:	89 e5                	mov    bp,sp
    234f:	ff 76 04             	push   WORD PTR [bp+0x4]
    2352:	ff 36 a2 18          	push   WORD PTR ds:0x18a2
    2356:	e8 07 00             	call   0x2360
    2359:	83 c4 04             	add    sp,0x4
    235c:	89 ec                	mov    sp,bp
    235e:	5d                   	pop    bp
    235f:	c3                   	ret    
    2360:	56                   	push   si
    2361:	57                   	push   di
    2362:	06                   	push   es
    2363:	55                   	push   bp
    2364:	89 e5                	mov    bp,sp
    2366:	8e 46 0c             	mov    es,WORD PTR [bp+0xc]
    2369:	06                   	push   es
    236a:	e8 24 00             	call   0x2391
    236d:	40                   	inc    ax
    236e:	89 c7                	mov    di,ax
    2370:	50                   	push   ax
    2371:	ff 76 0a             	push   WORD PTR [bp+0xa]
    2374:	e8 fd f4             	call   0x1874
    2377:	89 c6                	mov    si,ax
    2379:	83 c4 06             	add    sp,0x6
    237c:	21 c0                	and    ax,ax
    237e:	74 09                	je     0x2389
    2380:	57                   	push   di
    2381:	06                   	push   es
    2382:	50                   	push   ax
    2383:	e8 8d f3             	call   0x1713
    2386:	83 c4 06             	add    sp,0x6
    2389:	96                   	xchg   si,ax
    238a:	89 ec                	mov    sp,bp
    238c:	5d                   	pop    bp
    238d:	07                   	pop    es
    238e:	5f                   	pop    di
    238f:	5e                   	pop    si
    2390:	c3                   	ret    
    2391:	89 e3                	mov    bx,sp
    2393:	57                   	push   di
    2394:	06                   	push   es
    2395:	8b 7f 02             	mov    di,WORD PTR [bx+0x2]
    2398:	8c d8                	mov    ax,ds
    239a:	8e c0                	mov    es,ax
    239c:	89 fb                	mov    bx,di
    239e:	30 c0                	xor    al,al
    23a0:	b9 ff ff             	mov    cx,0xffff
    23a3:	f2 ae                	repnz scas al,BYTE PTR es:[di]
    23a5:	89 f8                	mov    ax,di
    23a7:	29 d8                	sub    ax,bx
    23a9:	48                   	dec    ax
    23aa:	07                   	pop    es
    23ab:	5f                   	pop    di
    23ac:	c3                   	ret    
    23ad:	56                   	push   si
    23ae:	57                   	push   di
    23af:	06                   	push   es
    23b0:	55                   	push   bp
    23b1:	89 e5                	mov    bp,sp
    23b3:	81 ec 92 00          	sub    sp,0x92
    23b7:	8e 46 0a             	mov    es,WORD PTR [bp+0xa]
    23ba:	06                   	push   es
    23bb:	e8 83 4c             	call   0x7041
    23be:	93                   	xchg   bx,ax
    23bf:	8b 07                	mov    ax,WORD PTR [bx]
    23c1:	89 86 78 ff          	mov    WORD PTR [bp-0x88],ax
    23c5:	50                   	push   ax
    23c6:	e8 c8 ff             	call   0x2391
    23c9:	89 46 88             	mov    WORD PTR [bp-0x78],ax
    23cc:	83 c4 04             	add    sp,0x4
    23cf:	8b 5e 0c             	mov    bx,WORD PTR [bp+0xc]
    23d2:	36 f6 47 06 80       	test   BYTE PTR ss:[bx+0x6],0x80
    23d7:	74 33                	je     0x240c
    23d9:	36 83 7f 0a 00       	cmp    WORD PTR ss:[bx+0xa],0x0
    23de:	75 2c                	jne    0x240c
    23e0:	be 40 00             	mov    si,0x40
    23e3:	56                   	push   si
    23e4:	06                   	push   es
    23e5:	e8 8c f4             	call   0x1874
    23e8:	8b 5e 0c             	mov    bx,WORD PTR [bp+0xc]
    23eb:	89 07                	mov    WORD PTR [bx],ax
    23ed:	89 47 0a             	mov    WORD PTR [bx+0xa],ax
    23f0:	83 c4 04             	add    sp,0x4
    23f3:	21 c0                	and    ax,ax
    23f5:	75 0f                	jne    0x2406
    23f7:	8c c3                	mov    bx,es
    23f9:	c7 07 08 00          	mov    WORD PTR [bx],0x8
    23fd:	c7 86 7a ff ff ff    	mov    WORD PTR [bp-0x86],0xffff
    2403:	e9 51 12             	jmp    0x3657
    2406:	8b 5e 0c             	mov    bx,WORD PTR [bp+0xc]
    2409:	89 77 0c             	mov    WORD PTR [bx+0xc],si
    240c:	8d 7e b8             	lea    di,[bp-0x48]
    240f:	89 7e a2             	mov    WORD PTR [bp-0x5e],di
    2412:	c7 46 a6 00 00       	mov    WORD PTR [bp-0x5a],0x0
    2417:	c7 46 a4 00 00       	mov    WORD PTR [bp-0x5c],0x0
    241c:	8b 46 0e             	mov    ax,WORD PTR [bp+0xe]
    241f:	89 46 80             	mov    WORD PTR [bp-0x80],ax
    2422:	c7 46 8c 00 00       	mov    WORD PTR [bp-0x74],0x0
    2427:	31 c0                	xor    ax,ax
    2429:	89 46 86             	mov    WORD PTR [bp-0x7a],ax
    242c:	89 46 84             	mov    WORD PTR [bp-0x7c],ax
    242f:	89 46 82             	mov    WORD PTR [bp-0x7e],ax
    2432:	89 86 7e ff          	mov    WORD PTR [bp-0x82],ax
    2436:	89 86 74 ff          	mov    WORD PTR [bp-0x8c],ax
    243a:	89 86 76 ff          	mov    WORD PTR [bp-0x8a],ax
    243e:	89 86 7a ff          	mov    WORD PTR [bp-0x86],ax
    2442:	8b 76 80             	mov    si,WORD PTR [bp-0x80]
    2445:	36 8a 04             	mov    al,BYTE PTR ss:[si]
    2448:	3c 01                	cmp    al,0x1
    244a:	18 e4                	sbb    ah,ah
    244c:	fe c4                	inc    ah
    244e:	34 25                	xor    al,0x25
    2450:	3c 01                	cmp    al,0x1
    2452:	18 c0                	sbb    al,al
    2454:	fe c0                	inc    al
    2456:	20 c4                	and    ah,al
    2458:	88 e5                	mov    ch,ah
    245a:	75 70                	jne    0x24cc
    245c:	89 f2                	mov    dx,si
    245e:	2b 56 80             	sub    dx,WORD PTR [bp-0x80]
    2461:	74 20                	je     0x2483
    2463:	8b 46 80             	mov    ax,WORD PTR [bp-0x80]
    2466:	36 89 05             	mov    WORD PTR ss:[di],ax
    2469:	36 89 55 02          	mov    WORD PTR ss:[di+0x2],dx
    246d:	01 56 a6             	add    WORD PTR [bp-0x5a],dx
    2470:	8b 46 a4             	mov    ax,WORD PTR [bp-0x5c]
    2473:	40                   	inc    ax
    2474:	89 46 a4             	mov    WORD PTR [bp-0x5c],ax
    2477:	83 f8 07             	cmp    ax,0x7
    247a:	7f 54                	jg     0x24d0
    247c:	83 c7 04             	add    di,0x4
    247f:	01 96 7a ff          	add    WORD PTR [bp-0x86],dx
    2483:	36 80 3c 00          	cmp    BYTE PTR ss:[si],0x0
    2487:	75 03                	jne    0x248c
    2489:	e9 0e 12             	jmp    0x369a
    248c:	46                   	inc    si
    248d:	89 f3                	mov    bx,si
    248f:	c6 46 9b 00          	mov    BYTE PTR [bp-0x65],0x0
    2493:	30 c9                	xor    cl,cl
    2495:	c7 46 96 ff ff       	mov    WORD PTR [bp-0x6a],0xffff
    249a:	c7 86 7c ff 00 00    	mov    WORD PTR [bp-0x84],0x0
    24a0:	31 c0                	xor    ax,ax
    24a2:	89 46 98             	mov    WORD PTR [bp-0x68],ax
    24a5:	8e 5e 96             	mov    ds,WORD PTR [bp-0x6a]
    24a8:	89 d8                	mov    ax,bx
    24aa:	40                   	inc    ax
    24ab:	89 46 80             	mov    WORD PTR [bp-0x80],ax
    24ae:	36 8a 07             	mov    al,BYTE PTR ss:[bx]
    24b1:	98                   	cbw    
    24b2:	89 46 8e             	mov    WORD PTR [bp-0x72],ax
    24b5:	8b 46 8e             	mov    ax,WORD PTR [bp-0x72]
    24b8:	83 c0 e0             	add    ax,0xffe0
    24bb:	83 f8 58             	cmp    ax,0x58
    24be:	76 03                	jbe    0x24c3
    24c0:	e9 9a 09             	jmp    0x2e5d
    24c3:	d1 e0                	shl    ax,1
    24c5:	93                   	xchg   bx,ax
    24c6:	be cc 10             	mov    si,0x10cc
    24c9:	36 ff 20             	jmp    WORD PTR ss:[bx+si]
    24cc:	46                   	inc    si
    24cd:	e9 75 ff             	jmp    0x2445
    24d0:	88 6e 96             	mov    BYTE PTR [bp-0x6a],ch
    24d3:	89 56 98             	mov    WORD PTR [bp-0x68],dx
    24d6:	8d 46 a2             	lea    ax,[bp-0x5e]
    24d9:	50                   	push   ax
    24da:	ff 76 0c             	push   WORD PTR [bp+0xc]
    24dd:	06                   	push   es
    24de:	16                   	push   ss
    24df:	1f                   	pop    ds
    24e0:	e8 47 5c             	call   0x812a
    24e3:	83 c4 06             	add    sp,0x6
    24e6:	21 c0                	and    ax,ax
    24e8:	74 03                	je     0x24ed
    24ea:	e9 5d 11             	jmp    0x364a
    24ed:	8d 7e b8             	lea    di,[bp-0x48]
    24f0:	8a 6e 96             	mov    ch,BYTE PTR [bp-0x6a]
    24f3:	8b 56 98             	mov    dx,WORD PTR [bp-0x68]
    24f6:	eb 87                	jmp    0x247f
    24f8:	b9 2b 01             	mov    cx,0x12b
    24fb:	8b 46 80             	mov    ax,WORD PTR [bp-0x80]
    24fe:	93                   	xchg   bx,ax
    24ff:	eb a7                	jmp    0x24a8
    2501:	20 ed                	and    ch,ch
    2503:	74 03                	je     0x2508
    2505:	88 4e 9b             	mov    BYTE PTR [bp-0x65],cl
    2508:	f6 46 98 10          	test   BYTE PTR [bp-0x68],0x10
    250c:	75 03                	jne    0x2511
    250e:	e9 ff 01             	jmp    0x2710
    2511:	8b 46 10             	mov    ax,WORD PTR [bp+0x10]
    2514:	83 c0 04             	add    ax,0x4
    2517:	89 46 8a             	mov    WORD PTR [bp-0x76],ax
    251a:	8b 5e 10             	mov    bx,WORD PTR [bp+0x10]
    251d:	36 8b 07             	mov    ax,WORD PTR ss:[bx]
    2520:	89 46 90             	mov    WORD PTR [bp-0x70],ax
    2523:	36 8b 47 02          	mov    ax,WORD PTR ss:[bx+0x2]
    2527:	89 46 94             	mov    WORD PTR [bp-0x6c],ax
    252a:	b0 01                	mov    al,0x1
    252c:	83 7e 94 00          	cmp    WORD PTR [bp-0x6c],0x0
    2530:	7d 16                	jge    0x2548
    2532:	31 c0                	xor    ax,ax
    2534:	89 c2                	mov    dx,ax
    2536:	2b 46 90             	sub    ax,WORD PTR [bp-0x70]
    2539:	1b 56 94             	sbb    dx,WORD PTR [bp-0x6c]
    253c:	89 46 90             	mov    WORD PTR [bp-0x70],ax
    253f:	89 56 94             	mov    WORD PTR [bp-0x6c],dx
    2542:	c6 46 9b 2d          	mov    BYTE PTR [bp-0x65],0x2d
    2546:	b0 01                	mov    al,0x1
    2548:	83 7e 96 ff          	cmp    WORD PTR [bp-0x6a],0xffff
    254c:	74 04                	je     0x2552
    254e:	80 66 98 7f          	and    BYTE PTR [bp-0x68],0x7f
    2552:	8b 56 90             	mov    dx,WORD PTR [bp-0x70]
    2555:	0b 56 94             	or     dx,WORD PTR [bp-0x6c]
    2558:	75 09                	jne    0x2563
    255a:	83 7e 96 01          	cmp    WORD PTR [bp-0x6a],0x1
    255e:	73 03                	jae    0x2563
    2560:	e9 e7 08             	jmp    0x2e4a
    2563:	3c 01                	cmp    al,0x1
    2565:	75 03                	jne    0x256a
    2567:	e9 81 08             	jmp    0x2deb
    256a:	89 eb                	mov    bx,bp
    256c:	3c 02                	cmp    al,0x2
    256e:	74 03                	je     0x2573
    2570:	e9 23 08             	jmp    0x2d96
    2573:	89 6e 92             	mov    WORD PTR [bp-0x6e],bp
    2576:	b8 04 0c             	mov    ax,0xc04
    2579:	89 fe                	mov    si,di
    257b:	ff 4e 92             	dec    WORD PTR [bp-0x6e]
    257e:	8a 5e 90             	mov    bl,BYTE PTR [bp-0x70]
    2581:	83 e3 0f             	and    bx,0xf
    2584:	8b be 74 ff          	mov    di,WORD PTR [bp-0x8c]
    2588:	36 8a 11             	mov    dl,BYTE PTR ss:[bx+di]
    258b:	8b 5e 92             	mov    bx,WORD PTR [bp-0x6e]
    258e:	36 88 17             	mov    BYTE PTR ss:[bx],dl
    2591:	8b 56 94             	mov    dx,WORD PTR [bp-0x6c]
    2594:	88 e1                	mov    cl,ah
    2596:	d3 e2                	shl    dx,cl
    2598:	89 d7                	mov    di,dx
    259a:	8b 5e 90             	mov    bx,WORD PTR [bp-0x70]
    259d:	88 c1                	mov    cl,al
    259f:	d3 eb                	shr    bx,cl
    25a1:	8b 56 94             	mov    dx,WORD PTR [bp-0x6c]
    25a4:	d3 ea                	shr    dx,cl
    25a6:	09 fb                	or     bx,di
    25a8:	89 5e 90             	mov    WORD PTR [bp-0x70],bx
    25ab:	89 56 94             	mov    WORD PTR [bp-0x6c],dx
    25ae:	89 da                	mov    dx,bx
    25b0:	0b 56 94             	or     dx,WORD PTR [bp-0x6c]
    25b3:	89 f7                	mov    di,si
    25b5:	75 c2                	jne    0x2579
    25b7:	e9 23 08             	jmp    0x2ddd
    25ba:	20 ed                	and    ch,ch
    25bc:	74 03                	je     0x25c1
    25be:	88 4e 9b             	mov    BYTE PTR [bp-0x65],cl
    25c1:	c7 86 74 ff fd 17    	mov    WORD PTR [bp-0x8c],0x17fd
    25c7:	8b 56 98             	mov    dx,WORD PTR [bp-0x68]
    25ca:	83 e2 10             	and    dx,0x10
    25cd:	75 03                	jne    0x25d2
    25cf:	e9 66 07             	jmp    0x2d38
    25d2:	8b 46 10             	mov    ax,WORD PTR [bp+0x10]
    25d5:	83 c0 04             	add    ax,0x4
    25d8:	89 46 8a             	mov    WORD PTR [bp-0x76],ax
    25db:	8b 5e 10             	mov    bx,WORD PTR [bp+0x10]
    25de:	36 8b 07             	mov    ax,WORD PTR ss:[bx]
    25e1:	89 46 90             	mov    WORD PTR [bp-0x70],ax
    25e4:	36 8b 47 02          	mov    ax,WORD PTR ss:[bx+0x2]
    25e8:	89 46 94             	mov    WORD PTR [bp-0x6c],ax
    25eb:	e9 67 07             	jmp    0x2d55
    25ee:	20 c9                	and    cl,cl
    25f0:	74 03                	je     0x25f5
    25f2:	e9 06 ff             	jmp    0x24fb
    25f5:	b9 20 01             	mov    cx,0x120
    25f8:	e9 00 ff             	jmp    0x24fb
    25fb:	80 4e 98 01          	or     BYTE PTR [bp-0x68],0x1
    25ff:	e9 f9 fe             	jmp    0x24fb
    2602:	8b 5e 10             	mov    bx,WORD PTR [bp+0x10]
    2605:	36 8b 07             	mov    ax,WORD PTR ss:[bx]
    2608:	89 86 7c ff          	mov    WORD PTR [bp-0x84],ax
    260c:	83 46 10 02          	add    WORD PTR [bp+0x10],0x2
    2610:	21 c0                	and    ax,ax
    2612:	7c 03                	jl     0x2617
    2614:	e9 e4 fe             	jmp    0x24fb
    2617:	f7 9e 7c ff          	neg    WORD PTR [bp-0x84]
    261b:	80 4e 98 04          	or     BYTE PTR [bp-0x68],0x4
    261f:	e9 d9 fe             	jmp    0x24fb
    2622:	8b 56 80             	mov    dx,WORD PTR [bp-0x80]
    2625:	42                   	inc    dx
    2626:	8b 5e 80             	mov    bx,WORD PTR [bp-0x80]
    2629:	36 8a 07             	mov    al,BYTE PTR ss:[bx]
    262c:	98                   	cbw    
    262d:	89 46 8e             	mov    WORD PTR [bp-0x72],ax
    2630:	83 f8 2a             	cmp    ax,0x2a
    2633:	74 32                	je     0x2667
    2635:	89 d3                	mov    bx,dx
    2637:	c7 46 96 00 00       	mov    WORD PTR [bp-0x6a],0x0
    263c:	89 5e 80             	mov    WORD PTR [bp-0x80],bx
    263f:	8b 46 8e             	mov    ax,WORD PTR [bp-0x72]
    2642:	83 c0 d0             	add    ax,0xffd0
    2645:	89 46 94             	mov    WORD PTR [bp-0x6c],ax
    2648:	83 f8 09             	cmp    ax,0x9
    264b:	76 03                	jbe    0x2650
    264d:	e9 65 fe             	jmp    0x24b5
    2650:	b8 0a 00             	mov    ax,0xa
    2653:	f7 66 96             	mul    WORD PTR [bp-0x6a]
    2656:	96                   	xchg   si,ax
    2657:	03 76 94             	add    si,WORD PTR [bp-0x6c]
    265a:	89 76 96             	mov    WORD PTR [bp-0x6a],si
    265d:	36 8a 07             	mov    al,BYTE PTR ss:[bx]
    2660:	98                   	cbw    
    2661:	89 46 8e             	mov    WORD PTR [bp-0x72],ax
    2664:	43                   	inc    bx
    2665:	eb d5                	jmp    0x263c
    2667:	8b 46 10             	mov    ax,WORD PTR [bp+0x10]
    266a:	83 c0 02             	add    ax,0x2
    266d:	8b 5e 10             	mov    bx,WORD PTR [bp+0x10]
    2670:	36 8b 1f             	mov    bx,WORD PTR ss:[bx]
    2673:	89 5e 96             	mov    WORD PTR [bp-0x6a],bx
    2676:	21 db                	and    bx,bx
    2678:	7d 03                	jge    0x267d
    267a:	8c 5e 96             	mov    WORD PTR [bp-0x6a],ds
    267d:	89 46 10             	mov    WORD PTR [bp+0x10],ax
    2680:	89 56 80             	mov    WORD PTR [bp-0x80],dx
    2683:	e9 75 fe             	jmp    0x24fb
    2686:	80 4e 98 80          	or     BYTE PTR [bp-0x68],0x80
    268a:	e9 6e fe             	jmp    0x24fb
    268d:	c7 86 7c ff 00 00    	mov    WORD PTR [bp-0x84],0x0
    2693:	89 fe                	mov    si,di
    2695:	b8 0a 00             	mov    ax,0xa
    2698:	f7 a6 7c ff          	mul    WORD PTR [bp-0x84]
    269c:	8b 5e 8e             	mov    bx,WORD PTR [bp-0x72]
    269f:	97                   	xchg   di,ax
    26a0:	8d 41 d0             	lea    ax,[bx+di-0x30]
    26a3:	89 86 7c ff          	mov    WORD PTR [bp-0x84],ax
    26a7:	ff 46 80             	inc    WORD PTR [bp-0x80]
    26aa:	8b 5e 80             	mov    bx,WORD PTR [bp-0x80]
    26ad:	36 8a 47 ff          	mov    al,BYTE PTR ss:[bx-0x1]
    26b1:	98                   	cbw    
    26b2:	89 46 8e             	mov    WORD PTR [bp-0x72],ax
    26b5:	83 c0 d0             	add    ax,0xffd0
    26b8:	83 f8 09             	cmp    ax,0x9
    26bb:	89 f7                	mov    di,si
    26bd:	76 d4                	jbe    0x2693
    26bf:	e9 f3 fd             	jmp    0x24b5
    26c2:	80 4e 98 08          	or     BYTE PTR [bp-0x68],0x8
    26c6:	e9 32 fe             	jmp    0x24fb
    26c9:	80 4e 98 40          	or     BYTE PTR [bp-0x68],0x40
    26cd:	e9 2b fe             	jmp    0x24fb
    26d0:	80 4e 98 10          	or     BYTE PTR [bp-0x68],0x10
    26d4:	e9 24 fe             	jmp    0x24fb
    26d7:	8b 46 10             	mov    ax,WORD PTR [bp+0x10]
    26da:	83 c0 02             	add    ax,0x2
    26dd:	89 46 8a             	mov    WORD PTR [bp-0x76],ax
    26e0:	8b 5e 10             	mov    bx,WORD PTR [bp+0x10]
    26e3:	36 8b 07             	mov    ax,WORD PTR ss:[bx]
    26e6:	88 46 d8             	mov    BYTE PTR [bp-0x28],al
    26e9:	c6 46 9b 00          	mov    BYTE PTR [bp-0x65],0x0
    26ed:	c7 46 96 01 00       	mov    WORD PTR [bp-0x6a],0x1
    26f2:	31 db                	xor    bx,bx
    26f4:	89 5e 94             	mov    WORD PTR [bp-0x6c],bx
    26f7:	89 e8                	mov    ax,bp
    26f9:	83 c0 d8             	add    ax,0xffd8
    26fc:	89 46 92             	mov    WORD PTR [bp-0x6e],ax
    26ff:	e9 ea 00             	jmp    0x27ec
    2702:	20 ed                	and    ch,ch
    2704:	74 03                	je     0x2709
    2706:	88 4e 9b             	mov    BYTE PTR [bp-0x65],cl
    2709:	80 4e 98 10          	or     BYTE PTR [bp-0x68],0x10
    270d:	e9 f8 fd             	jmp    0x2508
    2710:	8b 5e 10             	mov    bx,WORD PTR [bp+0x10]
    2713:	36 8b 07             	mov    ax,WORD PTR ss:[bx]
    2716:	83 c3 02             	add    bx,0x2
    2719:	89 5e 8a             	mov    WORD PTR [bp-0x76],bx
    271c:	89 46 90             	mov    WORD PTR [bp-0x70],ax
    271f:	99                   	cwd    
    2720:	89 56 94             	mov    WORD PTR [bp-0x6c],dx
    2723:	e9 04 fe             	jmp    0x252a
    2726:	20 ed                	and    ch,ch
    2728:	74 03                	je     0x272d
    272a:	88 4e 9b             	mov    BYTE PTR [bp-0x65],cl
    272d:	8b 46 10             	mov    ax,WORD PTR [bp+0x10]
    2730:	83 c0 08             	add    ax,0x8
    2733:	89 46 8a             	mov    WORD PTR [bp-0x76],ax
    2736:	8b 5e 10             	mov    bx,WORD PTR [bp+0x10]
    2739:	36 8b 07             	mov    ax,WORD PTR ss:[bx]
    273c:	89 46 86             	mov    WORD PTR [bp-0x7a],ax
    273f:	36 8b 47 02          	mov    ax,WORD PTR ss:[bx+0x2]
    2743:	89 46 84             	mov    WORD PTR [bp-0x7c],ax
    2746:	36 8b 47 04          	mov    ax,WORD PTR ss:[bx+0x4]
    274a:	89 46 82             	mov    WORD PTR [bp-0x7e],ax
    274d:	36 8b 47 06          	mov    ax,WORD PTR ss:[bx+0x6]
    2751:	89 86 7e ff          	mov    WORD PTR [bp-0x82],ax
    2755:	8b 8e 7e ff          	mov    cx,WORD PTR [bp-0x82]
    2759:	80 e5 7f             	and    ch,0x7f
    275c:	bb ef 7f             	mov    bx,0x7fef
    275f:	53                   	push   bx
    2760:	89 5e 90             	mov    WORD PTR [bp-0x70],bx
    2763:	b8 ff ff             	mov    ax,0xffff
    2766:	50                   	push   ax
    2767:	50                   	push   ax
    2768:	50                   	push   ax
    2769:	51                   	push   cx
    276a:	89 4e 92             	mov    WORD PTR [bp-0x6e],cx
    276d:	ff 76 82             	push   WORD PTR [bp-0x7e]
    2770:	ff 76 84             	push   WORD PTR [bp-0x7c]
    2773:	ff 76 86             	push   WORD PTR [bp-0x7a]
    2776:	16                   	push   ss
    2777:	1f                   	pop    ds
    2778:	e8 05 a1             	call   0xc880
    277b:	83 c4 10             	add    sp,0x10
    277e:	21 c0                	and    ax,ax
    2780:	89 46 94             	mov    WORD PTR [bp-0x6c],ax
    2783:	74 03                	je     0x2788
    2785:	e9 2a 0f             	jmp    0x36b2
    2788:	8b 5e 90             	mov    bx,WORD PTR [bp-0x70]
    278b:	53                   	push   bx
    278c:	b8 ff ff             	mov    ax,0xffff
    278f:	50                   	push   ax
    2790:	50                   	push   ax
    2791:	50                   	push   ax
    2792:	8b 4e 92             	mov    cx,WORD PTR [bp-0x6e]
    2795:	51                   	push   cx
    2796:	ff 76 82             	push   WORD PTR [bp-0x7e]
    2799:	ff 76 84             	push   WORD PTR [bp-0x7c]
    279c:	ff 76 86             	push   WORD PTR [bp-0x7a]
    279f:	e8 07 a5             	call   0xcca9
    27a2:	83 c4 10             	add    sp,0x10
    27a5:	21 c0                	and    ax,ax
    27a7:	7f 03                	jg     0x27ac
    27a9:	e9 06 0f             	jmp    0x36b2
    27ac:	8b 56 94             	mov    dx,WORD PTR [bp-0x6c]
    27af:	52                   	push   dx
    27b0:	52                   	push   dx
    27b1:	52                   	push   dx
    27b2:	52                   	push   dx
    27b3:	ff b6 7e ff          	push   WORD PTR [bp-0x82]
    27b7:	ff 76 82             	push   WORD PTR [bp-0x7e]
    27ba:	ff 76 84             	push   WORD PTR [bp-0x7c]
    27bd:	ff 76 86             	push   WORD PTR [bp-0x7a]
    27c0:	e8 e6 a4             	call   0xcca9
    27c3:	83 c4 10             	add    sp,0x10
    27c6:	21 c0                	and    ax,ax
    27c8:	7d 04                	jge    0x27ce
    27ca:	c6 46 9b 2d          	mov    BYTE PTR [bp-0x65],0x2d
    27ce:	83 7e 8e 47          	cmp    WORD PTR [bp-0x72],0x47
    27d2:	7e 03                	jle    0x27d7
    27d4:	e9 4c 01             	jmp    0x2923
    27d7:	c7 46 92 ed 17       	mov    WORD PTR [bp-0x6e],0x17ed
    27dc:	80 66 98 7f          	and    BYTE PTR [bp-0x68],0x7f
    27e0:	c7 46 96 03 00       	mov    WORD PTR [bp-0x6a],0x3
    27e5:	31 db                	xor    bx,bx
    27e7:	c7 46 94 00 00       	mov    WORD PTR [bp-0x6c],0x0
    27ec:	89 5e 90             	mov    WORD PTR [bp-0x70],bx
    27ef:	3b 5e 96             	cmp    bx,WORD PTR [bp-0x6a]
    27f2:	7d 06                	jge    0x27fa
    27f4:	8b 46 96             	mov    ax,WORD PTR [bp-0x6a]
    27f7:	89 46 90             	mov    WORD PTR [bp-0x70],ax
    27fa:	80 7e 9b 01          	cmp    BYTE PTR [bp-0x65],0x1
    27fe:	f5                   	cmc    
    27ff:	19 c0                	sbb    ax,ax
    2801:	29 46 90             	sub    WORD PTR [bp-0x70],ax
    2804:	8b 46 98             	mov    ax,WORD PTR [bp-0x68]
    2807:	83 e0 02             	and    ax,0x2
    280a:	96                   	xchg   si,ax
    280b:	74 04                	je     0x2811
    280d:	83 46 90 02          	add    WORD PTR [bp-0x70],0x2
    2811:	8b 46 98             	mov    ax,WORD PTR [bp-0x68]
    2814:	25 84 00             	and    ax,0x84
    2817:	89 86 72 ff          	mov    WORD PTR [bp-0x8e],ax
    281b:	75 0e                	jne    0x282b
    281d:	8b 96 7c ff          	mov    dx,WORD PTR [bp-0x84]
    2821:	2b 56 90             	sub    dx,WORD PTR [bp-0x70]
    2824:	21 d2                	and    dx,dx
    2826:	7e 03                	jle    0x282b
    2828:	e9 70 06             	jmp    0x2e9b
    282b:	80 7e 9b 00          	cmp    BYTE PTR [bp-0x65],0x0
    282f:	74 21                	je     0x2852
    2831:	8d 46 9b             	lea    ax,[bp-0x65]
    2834:	36 89 05             	mov    WORD PTR ss:[di],ax
    2837:	36 c7 45 02 01 00    	mov    WORD PTR ss:[di+0x2],0x1
    283d:	ff 46 a6             	inc    WORD PTR [bp-0x5a]
    2840:	8b 46 a4             	mov    ax,WORD PTR [bp-0x5c]
    2843:	40                   	inc    ax
    2844:	89 46 a4             	mov    WORD PTR [bp-0x5c],ax
    2847:	83 f8 07             	cmp    ax,0x7
    284a:	7e 03                	jle    0x284f
    284c:	e9 c5 06             	jmp    0x2f14
    284f:	83 c7 04             	add    di,0x4
    2852:	21 f6                	and    si,si
    2854:	74 22                	je     0x2878
    2856:	8d 46 a0             	lea    ax,[bp-0x60]
    2859:	36 89 05             	mov    WORD PTR ss:[di],ax
    285c:	36 c7 45 02 02 00    	mov    WORD PTR ss:[di+0x2],0x2
    2862:	83 46 a6 02          	add    WORD PTR [bp-0x5a],0x2
    2866:	8b 46 a4             	mov    ax,WORD PTR [bp-0x5c]
    2869:	40                   	inc    ax
    286a:	89 46 a4             	mov    WORD PTR [bp-0x5c],ax
    286d:	83 f8 07             	cmp    ax,0x7
    2870:	7e 03                	jle    0x2875
    2872:	e9 c4 06             	jmp    0x2f39
    2875:	83 c7 04             	add    di,0x4
    2878:	81 be 72 ff 80 00    	cmp    WORD PTR [bp-0x8e],0x80
    287e:	75 0e                	jne    0x288e
    2880:	8b 96 7c ff          	mov    dx,WORD PTR [bp-0x84]
    2884:	2b 56 90             	sub    dx,WORD PTR [bp-0x70]
    2887:	21 d2                	and    dx,dx
    2889:	7e 03                	jle    0x288e
    288b:	e9 eb 06             	jmp    0x2f79
    288e:	89 da                	mov    dx,bx
    2890:	2b 56 96             	sub    dx,WORD PTR [bp-0x6a]
    2893:	21 d2                	and    dx,dx
    2895:	7e 03                	jle    0x289a
    2897:	e9 73 07             	jmp    0x300d
    289a:	f6 46 99 01          	test   BYTE PTR [bp-0x67],0x1
    289e:	74 03                	je     0x28a3
    28a0:	e9 d3 07             	jmp    0x3076
    28a3:	8b 46 92             	mov    ax,WORD PTR [bp-0x6e]
    28a6:	36 89 05             	mov    WORD PTR ss:[di],ax
    28a9:	8b 46 96             	mov    ax,WORD PTR [bp-0x6a]
    28ac:	36 89 45 02          	mov    WORD PTR ss:[di+0x2],ax
    28b0:	01 46 a6             	add    WORD PTR [bp-0x5a],ax
    28b3:	8b 46 a4             	mov    ax,WORD PTR [bp-0x5c]
    28b6:	40                   	inc    ax
    28b7:	89 46 a4             	mov    WORD PTR [bp-0x5c],ax
    28ba:	83 f8 07             	cmp    ax,0x7
    28bd:	7f 03                	jg     0x28c2
    28bf:	e9 38 0d             	jmp    0x35fa
    28c2:	8d 46 a2             	lea    ax,[bp-0x5e]
    28c5:	50                   	push   ax
    28c6:	ff 76 0c             	push   WORD PTR [bp+0xc]
    28c9:	06                   	push   es
    28ca:	16                   	push   ss
    28cb:	1f                   	pop    ds
    28cc:	e8 5b 58             	call   0x812a
    28cf:	83 c4 06             	add    sp,0x6
    28d2:	21 c0                	and    ax,ax
    28d4:	74 03                	je     0x28d9
    28d6:	e9 71 0d             	jmp    0x364a
    28d9:	8d 7e b8             	lea    di,[bp-0x48]
    28dc:	f6 46 98 04          	test   BYTE PTR [bp-0x68],0x4
    28e0:	74 03                	je     0x28e5
    28e2:	e9 1b 0d             	jmp    0x3600
    28e5:	8b 86 7c ff          	mov    ax,WORD PTR [bp-0x84]
    28e9:	3b 46 90             	cmp    ax,WORD PTR [bp-0x70]
    28ec:	7d 03                	jge    0x28f1
    28ee:	8b 46 90             	mov    ax,WORD PTR [bp-0x70]
    28f1:	01 86 7a ff          	add    WORD PTR [bp-0x86],ax
    28f5:	83 7e a6 00          	cmp    WORD PTR [bp-0x5a],0x0
    28f9:	74 17                	je     0x2912
    28fb:	8d 46 a2             	lea    ax,[bp-0x5e]
    28fe:	50                   	push   ax
    28ff:	ff 76 0c             	push   WORD PTR [bp+0xc]
    2902:	06                   	push   es
    2903:	16                   	push   ss
    2904:	1f                   	pop    ds
    2905:	e8 22 58             	call   0x812a
    2908:	83 c4 06             	add    sp,0x6
    290b:	21 c0                	and    ax,ax
    290d:	74 03                	je     0x2912
    290f:	e9 38 0d             	jmp    0x364a
    2912:	c7 46 a4 00 00       	mov    WORD PTR [bp-0x5c],0x0
    2917:	8b 46 8a             	mov    ax,WORD PTR [bp-0x76]
    291a:	89 46 10             	mov    WORD PTR [bp+0x10],ax
    291d:	8d 7e b8             	lea    di,[bp-0x48]
    2920:	e9 1f fb             	jmp    0x2442
    2923:	c7 46 92 f1 17       	mov    WORD PTR [bp-0x6e],0x17f1
    2928:	e9 b1 fe             	jmp    0x27dc
    292b:	c7 46 92 f9 17       	mov    WORD PTR [bp-0x6e],0x17f9
    2930:	e9 a9 fe             	jmp    0x27dc
    2933:	83 7e 96 ff          	cmp    WORD PTR [bp-0x6a],0xffff
    2937:	74 49                	je     0x2982
    2939:	8b 46 8e             	mov    ax,WORD PTR [bp-0x72]
    293c:	83 e0 df             	and    ax,0xffdf
    293f:	83 f8 47             	cmp    ax,0x47
    2942:	75 06                	jne    0x294a
    2944:	83 7e 96 01          	cmp    WORD PTR [bp-0x6a],0x1
    2948:	72 3f                	jb     0x2989
    294a:	8b 46 98             	mov    ax,WORD PTR [bp-0x68]
    294d:	80 cc 01             	or     ah,0x1
    2950:	89 46 90             	mov    WORD PTR [bp-0x70],ax
    2953:	8b 9e 7e ff          	mov    bx,WORD PTR [bp-0x82]
    2957:	83 be 7e ff 00       	cmp    WORD PTR [bp-0x82],0x0
    295c:	7d 32                	jge    0x2990
    295e:	80 c7 80             	add    bh,0x80
    2961:	c6 86 72 ff 2d       	mov    BYTE PTR [bp-0x8e],0x2d
    2966:	8b 46 8e             	mov    ax,WORD PTR [bp-0x72]
    2969:	83 e0 df             	and    ax,0xffdf
    296c:	89 46 94             	mov    WORD PTR [bp-0x6c],ax
    296f:	8b 4e 96             	mov    cx,WORD PTR [bp-0x6a]
    2972:	83 f8 46             	cmp    ax,0x46
    2975:	74 20                	je     0x2997
    2977:	83 f8 45             	cmp    ax,0x45
    297a:	75 01                	jne    0x297d
    297c:	41                   	inc    cx
    297d:	ba 02 00             	mov    dx,0x2
    2980:	eb 18                	jmp    0x299a
    2982:	c7 46 96 06 00       	mov    WORD PTR [bp-0x6a],0x6
    2987:	eb c1                	jmp    0x294a
    2989:	c7 46 96 01 00       	mov    WORD PTR [bp-0x6a],0x1
    298e:	eb ba                	jmp    0x294a
    2990:	c6 86 72 ff 00       	mov    BYTE PTR [bp-0x8e],0x0
    2995:	eb cf                	jmp    0x2966
    2997:	ba 03 00             	mov    dx,0x3
    299a:	8d 46 b0             	lea    ax,[bp-0x50]
    299d:	50                   	push   ax
    299e:	8d 46 9e             	lea    ax,[bp-0x62]
    29a1:	50                   	push   ax
    29a2:	8d 46 9c             	lea    ax,[bp-0x64]
    29a5:	50                   	push   ax
    29a6:	51                   	push   cx
    29a7:	89 8e 70 ff          	mov    WORD PTR [bp-0x90],cx
    29ab:	52                   	push   dx
    29ac:	53                   	push   bx
    29ad:	89 5e 8c             	mov    WORD PTR [bp-0x74],bx
    29b0:	ff 76 82             	push   WORD PTR [bp-0x7e]
    29b3:	ff 76 84             	push   WORD PTR [bp-0x7c]
    29b6:	ff 76 86             	push   WORD PTR [bp-0x7a]
    29b9:	06                   	push   es
    29ba:	e8 c8 38             	call   0x6285
    29bd:	89 46 92             	mov    WORD PTR [bp-0x6e],ax
    29c0:	83 c4 14             	add    sp,0x14
    29c3:	83 7e 94 47          	cmp    WORD PTR [bp-0x6c],0x47
    29c7:	8b 5e 8c             	mov    bx,WORD PTR [bp-0x74]
    29ca:	8b 8e 70 ff          	mov    cx,WORD PTR [bp-0x90]
    29ce:	75 09                	jne    0x29d9
    29d0:	f6 46 98 01          	test   BYTE PTR [bp-0x68],0x1
    29d4:	75 03                	jne    0x29d9
    29d6:	e9 11 0d             	jmp    0x36ea
    29d9:	8b 56 92             	mov    dx,WORD PTR [bp-0x6e]
    29dc:	01 ca                	add    dx,cx
    29de:	89 8e 6e ff          	mov    WORD PTR [bp-0x92],cx
    29e2:	83 7e 94 46          	cmp    WORD PTR [bp-0x6c],0x46
    29e6:	75 40                	jne    0x2a28
    29e8:	8b 76 92             	mov    si,WORD PTR [bp-0x6e]
    29eb:	36 80 3c 30          	cmp    BYTE PTR ss:[si],0x30
    29ef:	75 34                	jne    0x2a25
    29f1:	89 96 70 ff          	mov    WORD PTR [bp-0x90],dx
    29f5:	31 c0                	xor    ax,ax
    29f7:	50                   	push   ax
    29f8:	50                   	push   ax
    29f9:	50                   	push   ax
    29fa:	50                   	push   ax
    29fb:	53                   	push   bx
    29fc:	89 5e 8c             	mov    WORD PTR [bp-0x74],bx
    29ff:	ff 76 82             	push   WORD PTR [bp-0x7e]
    2a02:	ff 76 84             	push   WORD PTR [bp-0x7c]
    2a05:	ff 76 86             	push   WORD PTR [bp-0x7a]
    2a08:	e8 9e a2             	call   0xcca9
    2a0b:	83 c4 10             	add    sp,0x10
    2a0e:	21 c0                	and    ax,ax
    2a10:	8b 5e 8c             	mov    bx,WORD PTR [bp-0x74]
    2a13:	8b 96 70 ff          	mov    dx,WORD PTR [bp-0x90]
    2a17:	74 0c                	je     0x2a25
    2a19:	b8 01 00             	mov    ax,0x1
    2a1c:	8b 8e 6e ff          	mov    cx,WORD PTR [bp-0x92]
    2a20:	29 c8                	sub    ax,cx
    2a22:	89 46 9c             	mov    WORD PTR [bp-0x64],ax
    2a25:	03 56 9c             	add    dx,WORD PTR [bp-0x64]
    2a28:	89 56 8c             	mov    WORD PTR [bp-0x74],dx
    2a2b:	31 c0                	xor    ax,ax
    2a2d:	50                   	push   ax
    2a2e:	50                   	push   ax
    2a2f:	50                   	push   ax
    2a30:	50                   	push   ax
    2a31:	53                   	push   bx
    2a32:	ff 76 82             	push   WORD PTR [bp-0x7e]
    2a35:	ff 76 84             	push   WORD PTR [bp-0x7c]
    2a38:	ff 76 86             	push   WORD PTR [bp-0x7a]
    2a3b:	e8 5a 9d             	call   0xc798
    2a3e:	83 c4 10             	add    sp,0x10
    2a41:	21 c0                	and    ax,ax
    2a43:	8b 56 8c             	mov    dx,WORD PTR [bp-0x74]
    2a46:	74 03                	je     0x2a4b
    2a48:	e9 cd 00             	jmp    0x2b18
    2a4b:	89 56 b0             	mov    WORD PTR [bp-0x50],dx
    2a4e:	8b 46 b0             	mov    ax,WORD PTR [bp-0x50]
    2a51:	2b 46 92             	sub    ax,WORD PTR [bp-0x6e]
    2a54:	89 46 8c             	mov    WORD PTR [bp-0x74],ax
    2a57:	83 7e 94 47          	cmp    WORD PTR [bp-0x6c],0x47
    2a5b:	74 03                	je     0x2a60
    2a5d:	e9 c2 00             	jmp    0x2b22
    2a60:	8b 46 9c             	mov    ax,WORD PTR [bp-0x64]
    2a63:	83 f8 fd             	cmp    ax,0xfffd
    2a66:	7c 08                	jl     0x2a70
    2a68:	39 46 96             	cmp    WORD PTR [bp-0x6a],ax
    2a6b:	7c 03                	jl     0x2a70
    2a6d:	e9 20 01             	jmp    0x2b90
    2a70:	83 46 8e fe          	add    WORD PTR [bp-0x72],0xfffe
    2a74:	8b 4e 9c             	mov    cx,WORD PTR [bp-0x64]
    2a77:	89 c8                	mov    ax,cx
    2a79:	48                   	dec    ax
    2a7a:	89 46 9c             	mov    WORD PTR [bp-0x64],ax
    2a7d:	8a 56 8e             	mov    dl,BYTE PTR [bp-0x72]
    2a80:	88 56 a9             	mov    BYTE PTR [bp-0x57],dl
    2a83:	21 c0                	and    ax,ax
    2a85:	7c 03                	jl     0x2a8a
    2a87:	e9 cb 00             	jmp    0x2b55
    2a8a:	b8 01 00             	mov    ax,0x1
    2a8d:	29 c8                	sub    ax,cx
    2a8f:	c6 46 aa 2d          	mov    BYTE PTR [bp-0x56],0x2d
    2a93:	83 f8 09             	cmp    ax,0x9
    2a96:	7f 03                	jg     0x2a9b
    2a98:	e9 cf 00             	jmp    0x2b6a
    2a9b:	8d 4e b7             	lea    cx,[bp-0x49]
    2a9e:	be 0a 00             	mov    si,0xa
    2aa1:	89 cb                	mov    bx,cx
    2aa3:	4b                   	dec    bx
    2aa4:	99                   	cwd    
    2aa5:	f7 fe                	idiv   si
    2aa7:	80 c2 30             	add    dl,0x30
    2aaa:	88 17                	mov    BYTE PTR [bx],dl
    2aac:	83 f8 09             	cmp    ax,0x9
    2aaf:	7e 03                	jle    0x2ab4
    2ab1:	e9 a8 00             	jmp    0x2b5c
    2ab4:	04 30                	add    al,0x30
    2ab6:	88 47 ff             	mov    BYTE PTR [bx-0x1],al
    2ab9:	8d 76 ab             	lea    si,[bp-0x55]
    2abc:	83 c1 fe             	add    cx,0xfffe
    2abf:	89 cb                	mov    bx,cx
    2ac1:	8d 56 b7             	lea    dx,[bp-0x49]
    2ac4:	89 f0                	mov    ax,si
    2ac6:	39 d3                	cmp    bx,dx
    2ac8:	73 03                	jae    0x2acd
    2aca:	e9 94 00             	jmp    0x2b61
    2acd:	8d 56 a9             	lea    dx,[bp-0x57]
    2ad0:	29 d0                	sub    ax,dx
    2ad2:	89 86 76 ff          	mov    WORD PTR [bp-0x8a],ax
    2ad6:	96                   	xchg   si,ax
    2ad7:	03 76 8c             	add    si,WORD PTR [bp-0x74]
    2ada:	89 76 96             	mov    WORD PTR [bp-0x6a],si
    2add:	83 7e 8c 01          	cmp    WORD PTR [bp-0x74],0x1
    2ae1:	7f 0b                	jg     0x2aee
    2ae3:	8b 46 98             	mov    ax,WORD PTR [bp-0x68]
    2ae6:	83 e0 01             	and    ax,0x1
    2ae9:	89 46 94             	mov    WORD PTR [bp-0x6c],ax
    2aec:	74 0b                	je     0x2af9
    2aee:	8b 46 88             	mov    ax,WORD PTR [bp-0x78]
    2af1:	01 46 96             	add    WORD PTR [bp-0x6a],ax
    2af4:	c7 46 94 00 00       	mov    WORD PTR [bp-0x6c],0x0
    2af9:	80 be 72 ff 00       	cmp    BYTE PTR [bp-0x8e],0x0
    2afe:	74 04                	je     0x2b04
    2b00:	c6 46 9b 2d          	mov    BYTE PTR [bp-0x65],0x2d
    2b04:	8b 46 90             	mov    ax,WORD PTR [bp-0x70]
    2b07:	89 46 98             	mov    WORD PTR [bp-0x68],ax
    2b0a:	31 db                	xor    bx,bx
    2b0c:	e9 dd fc             	jmp    0x27ec
    2b0f:	8d 47 01             	lea    ax,[bx+0x1]
    2b12:	89 46 b0             	mov    WORD PTR [bp-0x50],ax
    2b15:	c6 07 30             	mov    BYTE PTR [bx],0x30
    2b18:	8b 5e b0             	mov    bx,WORD PTR [bp-0x50]
    2b1b:	39 da                	cmp    dx,bx
    2b1d:	77 f0                	ja     0x2b0f
    2b1f:	e9 2c ff             	jmp    0x2a4e
    2b22:	83 7e 8e 65          	cmp    WORD PTR [bp-0x72],0x65
    2b26:	7f 03                	jg     0x2b2b
    2b28:	e9 49 ff             	jmp    0x2a74
    2b2b:	83 7e 8e 66          	cmp    WORD PTR [bp-0x72],0x66
    2b2f:	75 5f                	jne    0x2b90
    2b31:	8b 46 9c             	mov    ax,WORD PTR [bp-0x64]
    2b34:	21 c0                	and    ax,ax
    2b36:	7e 41                	jle    0x2b79
    2b38:	83 7e 96 00          	cmp    WORD PTR [bp-0x6a],0x0
    2b3c:	75 06                	jne    0x2b44
    2b3e:	f6 46 98 01          	test   BYTE PTR [bp-0x68],0x1
    2b42:	74 06                	je     0x2b4a
    2b44:	03 46 88             	add    ax,WORD PTR [bp-0x78]
    2b47:	03 46 96             	add    ax,WORD PTR [bp-0x6a]
    2b4a:	8b 56 9c             	mov    dx,WORD PTR [bp-0x64]
    2b4d:	89 56 94             	mov    WORD PTR [bp-0x6c],dx
    2b50:	89 46 96             	mov    WORD PTR [bp-0x6a],ax
    2b53:	eb a4                	jmp    0x2af9
    2b55:	c6 46 aa 2b          	mov    BYTE PTR [bp-0x56],0x2b
    2b59:	e9 37 ff             	jmp    0x2a93
    2b5c:	89 d9                	mov    cx,bx
    2b5e:	e9 40 ff             	jmp    0x2aa1
    2b61:	8a 07                	mov    al,BYTE PTR [bx]
    2b63:	88 04                	mov    BYTE PTR [si],al
    2b65:	46                   	inc    si
    2b66:	43                   	inc    bx
    2b67:	e9 5a ff             	jmp    0x2ac4
    2b6a:	c6 46 ab 30          	mov    BYTE PTR [bp-0x55],0x30
    2b6e:	04 30                	add    al,0x30
    2b70:	88 46 ac             	mov    BYTE PTR [bp-0x54],al
    2b73:	8d 46 ad             	lea    ax,[bp-0x53]
    2b76:	e9 54 ff             	jmp    0x2acd
    2b79:	83 7e 96 00          	cmp    WORD PTR [bp-0x6a],0x0
    2b7d:	75 06                	jne    0x2b85
    2b7f:	f6 46 98 01          	test   BYTE PTR [bp-0x68],0x1
    2b83:	74 33                	je     0x2bb8
    2b85:	8b 5e 88             	mov    bx,WORD PTR [bp-0x78]
    2b88:	8b 76 96             	mov    si,WORD PTR [bp-0x6a]
    2b8b:	8d 40 01             	lea    ax,[bx+si+0x1]
    2b8e:	eb ba                	jmp    0x2b4a
    2b90:	8b 56 9c             	mov    dx,WORD PTR [bp-0x64]
    2b93:	3b 56 8c             	cmp    dx,WORD PTR [bp-0x74]
    2b96:	7c 11                	jl     0x2ba9
    2b98:	92                   	xchg   dx,ax
    2b99:	f6 46 98 01          	test   BYTE PTR [bp-0x68],0x1
    2b9d:	74 03                	je     0x2ba2
    2b9f:	03 46 88             	add    ax,WORD PTR [bp-0x78]
    2ba2:	c7 46 8e 67 00       	mov    WORD PTR [bp-0x72],0x67
    2ba7:	eb a1                	jmp    0x2b4a
    2ba9:	8b 46 8c             	mov    ax,WORD PTR [bp-0x74]
    2bac:	03 46 88             	add    ax,WORD PTR [bp-0x78]
    2baf:	21 d2                	and    dx,dx
    2bb1:	7f ef                	jg     0x2ba2
    2bb3:	29 d0                	sub    ax,dx
    2bb5:	40                   	inc    ax
    2bb6:	eb ea                	jmp    0x2ba2
    2bb8:	b8 01 00             	mov    ax,0x1
    2bbb:	eb 8d                	jmp    0x2b4a
    2bbd:	20 ed                	and    ch,ch
    2bbf:	74 03                	je     0x2bc4
    2bc1:	88 4e 9b             	mov    BYTE PTR [bp-0x65],cl
    2bc4:	8b 5e 10             	mov    bx,WORD PTR [bp+0x10]
    2bc7:	36 8b 37             	mov    si,WORD PTR ss:[bx]
    2bca:	8b 86 7a ff          	mov    ax,WORD PTR [bp-0x86]
    2bce:	f6 46 98 10          	test   BYTE PTR [bp-0x68],0x10
    2bd2:	74 0f                	je     0x2be3
    2bd4:	99                   	cwd    
    2bd5:	36 89 04             	mov    WORD PTR ss:[si],ax
    2bd8:	36 89 54 02          	mov    WORD PTR ss:[si+0x2],dx
    2bdc:	83 46 10 02          	add    WORD PTR [bp+0x10],0x2
    2be0:	e9 5f f8             	jmp    0x2442
    2be3:	36 89 04             	mov    WORD PTR ss:[si],ax
    2be6:	eb f4                	jmp    0x2bdc
    2be8:	80 4e 98 10          	or     BYTE PTR [bp-0x68],0x10
    2bec:	8b 46 98             	mov    ax,WORD PTR [bp-0x68]
    2bef:	83 e0 10             	and    ax,0x10
    2bf2:	74 22                	je     0x2c16
    2bf4:	8b 46 10             	mov    ax,WORD PTR [bp+0x10]
    2bf7:	83 c0 04             	add    ax,0x4
    2bfa:	89 46 8a             	mov    WORD PTR [bp-0x76],ax
    2bfd:	8b 5e 10             	mov    bx,WORD PTR [bp+0x10]
    2c00:	36 8b 07             	mov    ax,WORD PTR ss:[bx]
    2c03:	89 46 90             	mov    WORD PTR [bp-0x70],ax
    2c06:	36 8b 47 02          	mov    ax,WORD PTR ss:[bx+0x2]
    2c0a:	89 46 94             	mov    WORD PTR [bp-0x6c],ax
    2c0d:	30 c0                	xor    al,al
    2c0f:	c6 46 9b 00          	mov    BYTE PTR [bp-0x65],0x0
    2c13:	e9 32 f9             	jmp    0x2548
    2c16:	8b 56 98             	mov    dx,WORD PTR [bp-0x68]
    2c19:	83 e2 40             	and    dx,0x40
    2c1c:	74 14                	je     0x2c32
    2c1e:	8b 56 10             	mov    dx,WORD PTR [bp+0x10]
    2c21:	83 c2 02             	add    dx,0x2
    2c24:	89 56 8a             	mov    WORD PTR [bp-0x76],dx
    2c27:	8b 5e 10             	mov    bx,WORD PTR [bp+0x10]
    2c2a:	36 8b 17             	mov    dx,WORD PTR ss:[bx]
    2c2d:	89 56 90             	mov    WORD PTR [bp-0x70],dx
    2c30:	eb d8                	jmp    0x2c0a
    2c32:	8b 46 10             	mov    ax,WORD PTR [bp+0x10]
    2c35:	83 c0 02             	add    ax,0x2
    2c38:	89 46 8a             	mov    WORD PTR [bp-0x76],ax
    2c3b:	8b 5e 10             	mov    bx,WORD PTR [bp+0x10]
    2c3e:	36 8b 07             	mov    ax,WORD PTR ss:[bx]
    2c41:	89 46 90             	mov    WORD PTR [bp-0x70],ax
    2c44:	89 56 94             	mov    WORD PTR [bp-0x6c],dx
    2c47:	eb c4                	jmp    0x2c0d
    2c49:	8b 46 10             	mov    ax,WORD PTR [bp+0x10]
    2c4c:	83 c0 02             	add    ax,0x2
    2c4f:	89 46 8a             	mov    WORD PTR [bp-0x76],ax
    2c52:	8b 5e 10             	mov    bx,WORD PTR [bp+0x10]
    2c55:	36 8b 07             	mov    ax,WORD PTR ss:[bx]
    2c58:	89 46 90             	mov    WORD PTR [bp-0x70],ax
    2c5b:	c7 46 94 00 00       	mov    WORD PTR [bp-0x6c],0x0
    2c60:	80 4e 98 02          	or     BYTE PTR [bp-0x68],0x2
    2c64:	c7 46 a0 30 78       	mov    WORD PTR [bp-0x60],0x7830
    2c69:	c7 86 74 ff 0e 18    	mov    WORD PTR [bp-0x8c],0x180e
    2c6f:	b0 02                	mov    al,0x2
    2c71:	c7 46 8e 78 00       	mov    WORD PTR [bp-0x72],0x78
    2c76:	eb 97                	jmp    0x2c0f
    2c78:	8b 46 10             	mov    ax,WORD PTR [bp+0x10]
    2c7b:	83 c0 02             	add    ax,0x2
    2c7e:	89 46 8a             	mov    WORD PTR [bp-0x76],ax
    2c81:	8b 5e 10             	mov    bx,WORD PTR [bp+0x10]
    2c84:	36 8b 07             	mov    ax,WORD PTR ss:[bx]
    2c87:	89 46 92             	mov    WORD PTR [bp-0x6e],ax
    2c8a:	c6 46 9b 00          	mov    BYTE PTR [bp-0x65],0x0
    2c8e:	83 7e 96 ff          	cmp    WORD PTR [bp-0x6a],0xffff
    2c92:	74 26                	je     0x2cba
    2c94:	ff 76 96             	push   WORD PTR [bp-0x6a]
    2c97:	31 c0                	xor    ax,ax
    2c99:	50                   	push   ax
    2c9a:	ff 76 92             	push   WORD PTR [bp-0x6e]
    2c9d:	16                   	push   ss
    2c9e:	1f                   	pop    ds
    2c9f:	e8 51 ea             	call   0x16f3
    2ca2:	83 c4 06             	add    sp,0x6
    2ca5:	89 c3                	mov    bx,ax
    2ca7:	89 46 94             	mov    WORD PTR [bp-0x6c],ax
    2caa:	21 c0                	and    ax,ax
    2cac:	75 03                	jne    0x2cb1
    2cae:	e9 3b fb             	jmp    0x27ec
    2cb1:	2b 46 92             	sub    ax,WORD PTR [bp-0x6e]
    2cb4:	89 46 96             	mov    WORD PTR [bp-0x6a],ax
    2cb7:	e9 2b fb             	jmp    0x27e5
    2cba:	ff 76 92             	push   WORD PTR [bp-0x6e]
    2cbd:	16                   	push   ss
    2cbe:	1f                   	pop    ds
    2cbf:	e8 cf f6             	call   0x2391
    2cc2:	89 46 96             	mov    WORD PTR [bp-0x6a],ax
    2cc5:	83 c4 02             	add    sp,0x2
    2cc8:	e9 1a fb             	jmp    0x27e5
    2ccb:	80 4e 98 10          	or     BYTE PTR [bp-0x68],0x10
    2ccf:	8b 46 98             	mov    ax,WORD PTR [bp-0x68]
    2cd2:	83 e0 10             	and    ax,0x10
    2cd5:	74 1e                	je     0x2cf5
    2cd7:	8b 46 10             	mov    ax,WORD PTR [bp+0x10]
    2cda:	83 c0 04             	add    ax,0x4
    2cdd:	89 46 8a             	mov    WORD PTR [bp-0x76],ax
    2ce0:	8b 5e 10             	mov    bx,WORD PTR [bp+0x10]
    2ce3:	36 8b 07             	mov    ax,WORD PTR ss:[bx]
    2ce6:	89 46 90             	mov    WORD PTR [bp-0x70],ax
    2ce9:	36 8b 47 02          	mov    ax,WORD PTR ss:[bx+0x2]
    2ced:	89 46 94             	mov    WORD PTR [bp-0x6c],ax
    2cf0:	b0 01                	mov    al,0x1
    2cf2:	e9 1a ff             	jmp    0x2c0f
    2cf5:	8b 56 98             	mov    dx,WORD PTR [bp-0x68]
    2cf8:	83 e2 40             	and    dx,0x40
    2cfb:	74 14                	je     0x2d11
    2cfd:	8b 56 10             	mov    dx,WORD PTR [bp+0x10]
    2d00:	83 c2 02             	add    dx,0x2
    2d03:	89 56 8a             	mov    WORD PTR [bp-0x76],dx
    2d06:	8b 5e 10             	mov    bx,WORD PTR [bp+0x10]
    2d09:	36 8b 17             	mov    dx,WORD PTR ss:[bx]
    2d0c:	89 56 90             	mov    WORD PTR [bp-0x70],dx
    2d0f:	eb dc                	jmp    0x2ced
    2d11:	8b 46 10             	mov    ax,WORD PTR [bp+0x10]
    2d14:	83 c0 02             	add    ax,0x2
    2d17:	89 46 8a             	mov    WORD PTR [bp-0x76],ax
    2d1a:	8b 5e 10             	mov    bx,WORD PTR [bp+0x10]
    2d1d:	36 8b 07             	mov    ax,WORD PTR ss:[bx]
    2d20:	89 46 90             	mov    WORD PTR [bp-0x70],ax
    2d23:	89 56 94             	mov    WORD PTR [bp-0x6c],dx
    2d26:	eb c8                	jmp    0x2cf0
    2d28:	20 ed                	and    ch,ch
    2d2a:	74 03                	je     0x2d2f
    2d2c:	88 4e 9b             	mov    BYTE PTR [bp-0x65],cl
    2d2f:	c7 86 74 ff 0e 18    	mov    WORD PTR [bp-0x8c],0x180e
    2d35:	e9 8f f8             	jmp    0x25c7
    2d38:	8b 46 98             	mov    ax,WORD PTR [bp-0x68]
    2d3b:	83 e0 40             	and    ax,0x40
    2d3e:	74 3e                	je     0x2d7e
    2d40:	8b 46 10             	mov    ax,WORD PTR [bp+0x10]
    2d43:	83 c0 02             	add    ax,0x2
    2d46:	89 46 8a             	mov    WORD PTR [bp-0x76],ax
    2d49:	8b 5e 10             	mov    bx,WORD PTR [bp+0x10]
    2d4c:	36 8b 07             	mov    ax,WORD PTR ss:[bx]
    2d4f:	89 46 90             	mov    WORD PTR [bp-0x70],ax
    2d52:	89 56 94             	mov    WORD PTR [bp-0x6c],dx
    2d55:	b0 02                	mov    al,0x2
    2d57:	f6 46 98 01          	test   BYTE PTR [bp-0x68],0x1
    2d5b:	75 03                	jne    0x2d60
    2d5d:	e9 af fe             	jmp    0x2c0f
    2d60:	8b 56 90             	mov    dx,WORD PTR [bp-0x70]
    2d63:	0b 56 94             	or     dx,WORD PTR [bp-0x6c]
    2d66:	75 03                	jne    0x2d6b
    2d68:	e9 a4 fe             	jmp    0x2c0f
    2d6b:	c6 46 a0 30          	mov    BYTE PTR [bp-0x60],0x30
    2d6f:	8a 46 8e             	mov    al,BYTE PTR [bp-0x72]
    2d72:	88 46 a1             	mov    BYTE PTR [bp-0x5f],al
    2d75:	80 4e 98 02          	or     BYTE PTR [bp-0x68],0x2
    2d79:	b0 02                	mov    al,0x2
    2d7b:	e9 91 fe             	jmp    0x2c0f
    2d7e:	8b 56 10             	mov    dx,WORD PTR [bp+0x10]
    2d81:	83 c2 02             	add    dx,0x2
    2d84:	89 56 8a             	mov    WORD PTR [bp-0x76],dx
    2d87:	8b 5e 10             	mov    bx,WORD PTR [bp+0x10]
    2d8a:	36 8b 17             	mov    dx,WORD PTR ss:[bx]
    2d8d:	89 56 90             	mov    WORD PTR [bp-0x70],dx
    2d90:	e9 55 f8             	jmp    0x25e8
    2d93:	8b 5e 92             	mov    bx,WORD PTR [bp-0x6e]
    2d96:	89 d8                	mov    ax,bx
    2d98:	48                   	dec    ax
    2d99:	89 46 92             	mov    WORD PTR [bp-0x6e],ax
    2d9c:	8a 4e 90             	mov    cl,BYTE PTR [bp-0x70]
    2d9f:	80 e1 07             	and    cl,0x7
    2da2:	80 c1 30             	add    cl,0x30
    2da5:	96                   	xchg   si,ax
    2da6:	36 88 0c             	mov    BYTE PTR ss:[si],cl
    2da9:	8b 46 94             	mov    ax,WORD PTR [bp-0x6c]
    2dac:	d1 e8                	shr    ax,1
    2dae:	8b 56 90             	mov    dx,WORD PTR [bp-0x70]
    2db1:	d1 da                	rcr    dx,1
    2db3:	d1 e8                	shr    ax,1
    2db5:	d1 da                	rcr    dx,1
    2db7:	d1 e8                	shr    ax,1
    2db9:	d1 da                	rcr    dx,1
    2dbb:	89 56 90             	mov    WORD PTR [bp-0x70],dx
    2dbe:	89 46 94             	mov    WORD PTR [bp-0x6c],ax
    2dc1:	92                   	xchg   dx,ax
    2dc2:	0b 46 94             	or     ax,WORD PTR [bp-0x6c]
    2dc5:	75 cc                	jne    0x2d93
    2dc7:	80 f9 30             	cmp    cl,0x30
    2dca:	74 11                	je     0x2ddd
    2dcc:	f6 46 98 01          	test   BYTE PTR [bp-0x68],0x1
    2dd0:	74 0b                	je     0x2ddd
    2dd2:	36 c6 44 ff 30       	mov    BYTE PTR ss:[si-0x1],0x30
    2dd7:	83 c3 fe             	add    bx,0xfffe
    2dda:	89 5e 92             	mov    WORD PTR [bp-0x6e],bx
    2ddd:	8b 5e 96             	mov    bx,WORD PTR [bp-0x6a]
    2de0:	89 ee                	mov    si,bp
    2de2:	2b 76 92             	sub    si,WORD PTR [bp-0x6e]
    2de5:	89 76 96             	mov    WORD PTR [bp-0x6a],si
    2de8:	e9 fc f9             	jmp    0x27e7
    2deb:	83 7e 94 00          	cmp    WORD PTR [bp-0x6c],0x0
    2def:	75 16                	jne    0x2e07
    2df1:	83 7e 90 09          	cmp    WORD PTR [bp-0x70],0x9
    2df5:	77 10                	ja     0x2e07
    2df7:	8a 46 90             	mov    al,BYTE PTR [bp-0x70]
    2dfa:	04 30                	add    al,0x30
    2dfc:	88 46 ff             	mov    BYTE PTR [bp-0x1],al
    2dff:	89 e8                	mov    ax,bp
    2e01:	48                   	dec    ax
    2e02:	89 46 92             	mov    WORD PTR [bp-0x6e],ax
    2e05:	eb d6                	jmp    0x2ddd
    2e07:	89 6e 92             	mov    WORD PTR [bp-0x6e],bp
    2e0a:	ff 4e 92             	dec    WORD PTR [bp-0x6e]
    2e0d:	31 c0                	xor    ax,ax
    2e0f:	50                   	push   ax
    2e10:	b8 0a 00             	mov    ax,0xa
    2e13:	50                   	push   ax
    2e14:	ff 76 94             	push   WORD PTR [bp-0x6c]
    2e17:	ff 76 90             	push   WORD PTR [bp-0x70]
    2e1a:	16                   	push   ss
    2e1b:	1f                   	pop    ds
    2e1c:	e8 d1 9d             	call   0xcbf0
    2e1f:	83 c4 08             	add    sp,0x8
    2e22:	04 30                	add    al,0x30
    2e24:	8b 5e 92             	mov    bx,WORD PTR [bp-0x6e]
    2e27:	88 07                	mov    BYTE PTR [bx],al
    2e29:	31 c0                	xor    ax,ax
    2e2b:	50                   	push   ax
    2e2c:	b8 0a 00             	mov    ax,0xa
    2e2f:	50                   	push   ax
    2e30:	ff 76 94             	push   WORD PTR [bp-0x6c]
    2e33:	ff 76 90             	push   WORD PTR [bp-0x70]
    2e36:	e8 a6 9d             	call   0xcbdf
    2e39:	83 c4 08             	add    sp,0x8
    2e3c:	89 46 90             	mov    WORD PTR [bp-0x70],ax
    2e3f:	89 56 94             	mov    WORD PTR [bp-0x6c],dx
    2e42:	09 d0                	or     ax,dx
    2e44:	21 c0                	and    ax,ax
    2e46:	75 c2                	jne    0x2e0a
    2e48:	eb 93                	jmp    0x2ddd
    2e4a:	89 6e 92             	mov    WORD PTR [bp-0x6e],bp
    2e4d:	20 c0                	and    al,al
    2e4f:	75 8c                	jne    0x2ddd
    2e51:	f6 46 98 01          	test   BYTE PTR [bp-0x68],0x1
    2e55:	74 86                	je     0x2ddd
    2e57:	c6 46 ff 30          	mov    BYTE PTR [bp-0x1],0x30
    2e5b:	eb a2                	jmp    0x2dff
    2e5d:	20 ed                	and    ch,ch
    2e5f:	74 03                	je     0x2e64
    2e61:	88 4e 9b             	mov    BYTE PTR [bp-0x65],cl
    2e64:	83 7e 8e 00          	cmp    WORD PTR [bp-0x72],0x0
    2e68:	75 03                	jne    0x2e6d
    2e6a:	e9 2d 08             	jmp    0x369a
    2e6d:	8a 46 8e             	mov    al,BYTE PTR [bp-0x72]
    2e70:	88 46 d8             	mov    BYTE PTR [bp-0x28],al
    2e73:	c6 46 9b 00          	mov    BYTE PTR [bp-0x65],0x0
    2e77:	8b 46 10             	mov    ax,WORD PTR [bp+0x10]
    2e7a:	89 46 8a             	mov    WORD PTR [bp-0x76],ax
    2e7d:	e9 6d f8             	jmp    0x26ed
    2e80:	36 c7 45 02 10 00    	mov    WORD PTR ss:[di+0x2],0x10
    2e86:	83 c1 10             	add    cx,0x10
    2e89:	89 4e a6             	mov    WORD PTR [bp-0x5a],cx
    2e8c:	40                   	inc    ax
    2e8d:	89 46 a4             	mov    WORD PTR [bp-0x5c],ax
    2e90:	83 f8 07             	cmp    ax,0x7
    2e93:	7f 2e                	jg     0x2ec3
    2e95:	83 c7 04             	add    di,0x4
    2e98:	83 c2 f0             	add    dx,0xfff0
    2e9b:	83 fa 10             	cmp    dx,0x10
    2e9e:	8b 4e a6             	mov    cx,WORD PTR [bp-0x5a]
    2ea1:	8b 46 a4             	mov    ax,WORD PTR [bp-0x5c]
    2ea4:	36 c7 05 8e 11       	mov    WORD PTR ss:[di],0x118e
    2ea9:	7f d5                	jg     0x2e80
    2eab:	36 89 55 02          	mov    WORD PTR ss:[di+0x2],dx
    2eaf:	01 ca                	add    dx,cx
    2eb1:	89 56 a6             	mov    WORD PTR [bp-0x5a],dx
    2eb4:	40                   	inc    ax
    2eb5:	89 46 a4             	mov    WORD PTR [bp-0x5c],ax
    2eb8:	83 f8 07             	cmp    ax,0x7
    2ebb:	7f 32                	jg     0x2eef
    2ebd:	83 c7 04             	add    di,0x4
    2ec0:	e9 68 f9             	jmp    0x282b
    2ec3:	89 9e 6e ff          	mov    WORD PTR [bp-0x92],bx
    2ec7:	89 96 70 ff          	mov    WORD PTR [bp-0x90],dx
    2ecb:	8d 46 a2             	lea    ax,[bp-0x5e]
    2ece:	50                   	push   ax
    2ecf:	ff 76 0c             	push   WORD PTR [bp+0xc]
    2ed2:	06                   	push   es
    2ed3:	16                   	push   ss
    2ed4:	1f                   	pop    ds
    2ed5:	e8 52 52             	call   0x812a
    2ed8:	83 c4 06             	add    sp,0x6
    2edb:	21 c0                	and    ax,ax
    2edd:	74 03                	je     0x2ee2
    2edf:	e9 68 07             	jmp    0x364a
    2ee2:	8d 7e b8             	lea    di,[bp-0x48]
    2ee5:	8b 9e 6e ff          	mov    bx,WORD PTR [bp-0x92]
    2ee9:	8b 96 70 ff          	mov    dx,WORD PTR [bp-0x90]
    2eed:	eb a9                	jmp    0x2e98
    2eef:	89 9e 70 ff          	mov    WORD PTR [bp-0x90],bx
    2ef3:	8d 46 a2             	lea    ax,[bp-0x5e]
    2ef6:	50                   	push   ax
    2ef7:	ff 76 0c             	push   WORD PTR [bp+0xc]
    2efa:	06                   	push   es
    2efb:	16                   	push   ss
    2efc:	1f                   	pop    ds
    2efd:	e8 2a 52             	call   0x812a
    2f00:	83 c4 06             	add    sp,0x6
    2f03:	21 c0                	and    ax,ax
    2f05:	74 03                	je     0x2f0a
    2f07:	e9 40 07             	jmp    0x364a
    2f0a:	8d 7e b8             	lea    di,[bp-0x48]
    2f0d:	8b 9e 70 ff          	mov    bx,WORD PTR [bp-0x90]
    2f11:	e9 17 f9             	jmp    0x282b
    2f14:	89 9e 70 ff          	mov    WORD PTR [bp-0x90],bx
    2f18:	8d 46 a2             	lea    ax,[bp-0x5e]
    2f1b:	50                   	push   ax
    2f1c:	ff 76 0c             	push   WORD PTR [bp+0xc]
    2f1f:	06                   	push   es
    2f20:	16                   	push   ss
    2f21:	1f                   	pop    ds
    2f22:	e8 05 52             	call   0x812a
    2f25:	83 c4 06             	add    sp,0x6
    2f28:	21 c0                	and    ax,ax
    2f2a:	74 03                	je     0x2f2f
    2f2c:	e9 1b 07             	jmp    0x364a
    2f2f:	8d 7e b8             	lea    di,[bp-0x48]
    2f32:	8b 9e 70 ff          	mov    bx,WORD PTR [bp-0x90]
    2f36:	e9 19 f9             	jmp    0x2852
    2f39:	89 9e 70 ff          	mov    WORD PTR [bp-0x90],bx
    2f3d:	8d 46 a2             	lea    ax,[bp-0x5e]
    2f40:	50                   	push   ax
    2f41:	ff 76 0c             	push   WORD PTR [bp+0xc]
    2f44:	06                   	push   es
    2f45:	16                   	push   ss
